                                      1 ;--------------------------------------------------------
                                      2 ; File Created by SDCC : free open source ISO C Compiler
                                      3 ; Version 4.5.1 #15267 (MINGW64)
                                      4 ;--------------------------------------------------------
                                      5 	.module player
                                      6 	
                                      7 ;--------------------------------------------------------
                                      8 ; Public variables in this module
                                      9 ;--------------------------------------------------------
                                     10 	.globl _player_noclip
                                     11 	.globl _player_update
                                     12 ;--------------------------------------------------------
                                     13 ; special function registers
                                     14 ;--------------------------------------------------------
                                     15 	.area _HRAM
                                     16 ;--------------------------------------------------------
                                     17 ; ram data
                                     18 ;--------------------------------------------------------
                                     19 	.area _DATA
                                     20 ;--------------------------------------------------------
                                     21 ; ram data
                                     22 ;--------------------------------------------------------
                                     23 	.area _INITIALIZED
    00000000                         24 _player_noclip::
    00000000                         25 	.ds 1
                                     26 ;--------------------------------------------------------
                                     27 ; absolute external ram data
                                     28 ;--------------------------------------------------------
                                     29 	.area _DABS (ABS)
                                     30 ;--------------------------------------------------------
                                     31 ; global & static initialisations
                                     32 ;--------------------------------------------------------
                                     33 	.area _HOME
                                     34 	.area _GSINIT
                                     35 	.area _GSFINAL
                                     36 	.area _GSINIT
                                     37 ;--------------------------------------------------------
                                     38 ; Home
                                     39 ;--------------------------------------------------------
                                     40 	.area _HOME
                                     41 ;src/player.c:5: uint8_t player_update(
                                     42 ;	---------------------------------
                                     43 ; Function player_update
                                     44 ; ---------------------------------
    00000000                         45 _player_update::
    00000000 E8 D3            [16]   46 	add	sp, #-45
    00000002 F8 2B            [12]   47 	ldhl	sp,	#43
    00000004 73               [ 8]   48 	ld	(hl), e
    00000005 23               [ 8]   49 	inc	hl
    00000006 72               [ 8]   50 	ld	(hl), d
    00000007 2B               [ 8]   51 	dec	hl
    00000008 2B               [ 8]   52 	dec	hl
                                     53 ;src/player.c:12: if (p->dead) return 1;
    00000009 22               [ 8]   54 	ld	(hl+), a
    0000000A 2A               [ 8]   55 	ld	a, (hl+)
    0000000B 5F               [ 4]   56 	ld	e, a
    0000000C 56               [ 8]   57 	ld	d, (hl)
    0000000D 21 07 00         [12]   58 	ld	hl, #0x0007
    00000010 19               [ 8]   59 	add	hl, de
    00000011 E5               [16]   60 	push	hl
    00000012 7D               [ 4]   61 	ld	a, l
    00000013 F8 05            [12]   62 	ldhl	sp,	#5
    00000015 77               [ 8]   63 	ld	(hl), a
    00000016 E1               [12]   64 	pop	hl
    00000017 7C               [ 4]   65 	ld	a, h
    00000018 F8 04            [12]   66 	ldhl	sp,	#4
    0000001A 32               [ 8]   67 	ld	(hl-), a
    0000001B 2A               [ 8]   68 	ld	a, (hl+)
    0000001C 5F               [ 4]   69 	ld	e, a
    0000001D 56               [ 8]   70 	ld	d, (hl)
    0000001E 1A               [ 8]   71 	ld	a, (de)
    0000001F F8 29            [12]   72 	ldhl	sp,	#41
    00000021 77               [ 8]   73 	ld	(hl), a
    00000022 B7               [ 4]   74 	or	a, a
    00000023 28 05            [12]   75 	jr	Z, 00102$
    00000025 3E 01            [ 8]   76 	ld	a, #0x01
    00000027 C3r37r0D         [16]   77 	jp	00271$
    0000002A                         78 00102$:
                                     79 ;src/player.c:15: if (!p->on_ground) {
    0000002A F8 2B            [12]   80 	ldhl	sp,#43
    0000002C 2A               [ 8]   81 	ld	a, (hl+)
    0000002D 5F               [ 4]   82 	ld	e, a
    0000002E 56               [ 8]   83 	ld	d, (hl)
    0000002F 21 06 00         [12]   84 	ld	hl, #0x0006
    00000032 19               [ 8]   85 	add	hl, de
    00000033 E5               [16]   86 	push	hl
    00000034 7D               [ 4]   87 	ld	a, l
    00000035 F8 07            [12]   88 	ldhl	sp,	#7
    00000037 77               [ 8]   89 	ld	(hl), a
    00000038 E1               [12]   90 	pop	hl
    00000039 7C               [ 4]   91 	ld	a, h
    0000003A F8 06            [12]   92 	ldhl	sp,	#6
    0000003C 32               [ 8]   93 	ld	(hl-), a
    0000003D 2A               [ 8]   94 	ld	a, (hl+)
    0000003E 5F               [ 4]   95 	ld	e, a
    0000003F 56               [ 8]   96 	ld	d, (hl)
    00000040 1A               [ 8]   97 	ld	a, (de)
    00000041 4F               [ 4]   98 	ld	c, a
                                     99 ;src/player.c:16: if (p->gravity_flipped) {
    00000042 F8 2B            [12]  100 	ldhl	sp,#43
    00000044 2A               [ 8]  101 	ld	a, (hl+)
    00000045 5F               [ 4]  102 	ld	e, a
    00000046 56               [ 8]  103 	ld	d, (hl)
    00000047 21 08 00         [12]  104 	ld	hl, #0x0008
    0000004A 19               [ 8]  105 	add	hl, de
    0000004B E5               [16]  106 	push	hl
    0000004C 7D               [ 4]  107 	ld	a, l
    0000004D F8 09            [12]  108 	ldhl	sp,	#9
    0000004F 77               [ 8]  109 	ld	(hl), a
    00000050 E1               [12]  110 	pop	hl
    00000051 7C               [ 4]  111 	ld	a, h
    00000052 F8 08            [12]  112 	ldhl	sp,	#8
    00000054 77               [ 8]  113 	ld	(hl), a
                                    114 ;src/player.c:17: p->vel_y -= GRAVITY;
    00000055 F8 2B            [12]  115 	ldhl	sp,#43
    00000057 2A               [ 8]  116 	ld	a, (hl+)
    00000058 5F               [ 4]  117 	ld	e, a
    00000059 56               [ 8]  118 	ld	d, (hl)
    0000005A 21 04 00         [12]  119 	ld	hl, #0x0004
    0000005D 19               [ 8]  120 	add	hl, de
    0000005E E5               [16]  121 	push	hl
    0000005F 7D               [ 4]  122 	ld	a, l
    00000060 F8 0B            [12]  123 	ldhl	sp,	#11
    00000062 77               [ 8]  124 	ld	(hl), a
    00000063 E1               [12]  125 	pop	hl
    00000064 7C               [ 4]  126 	ld	a, h
    00000065 F8 0A            [12]  127 	ldhl	sp,	#10
    00000067 77               [ 8]  128 	ld	(hl), a
                                    129 ;src/player.c:15: if (!p->on_ground) {
    00000068 79               [ 4]  130 	ld	a, c
    00000069 B7               [ 4]  131 	or	a, a
    0000006A 20 6D            [12]  132 	jr	NZ, 00111$
                                    133 ;src/player.c:16: if (p->gravity_flipped) {
    0000006C 2B               [ 8]  134 	dec	hl
    0000006D 2B               [ 8]  135 	dec	hl
    0000006E 2B               [ 8]  136 	dec	hl
    0000006F 2A               [ 8]  137 	ld	a, (hl+)
    00000070 5F               [ 4]  138 	ld	e, a
                                    139 ;src/player.c:17: p->vel_y -= GRAVITY;
    00000071 2A               [ 8]  140 	ld	a, (hl+)
    00000072 57               [ 4]  141 	ld	d, a
    00000073 1A               [ 8]  142 	ld	a, (de)
    00000074 4F               [ 4]  143 	ld	c, a
    00000075 2A               [ 8]  144 	ld	a, (hl+)
    00000076 5F               [ 4]  145 	ld	e, a
    00000077 56               [ 8]  146 	ld	d, (hl)
    00000078 1A               [ 8]  147 	ld	a, (de)
    00000079 6F               [ 4]  148 	ld	l, a
    0000007A 13               [ 8]  149 	inc	de
    0000007B 1A               [ 8]  150 	ld	a, (de)
    0000007C 67               [ 4]  151 	ld	h, a
                                    152 ;src/player.c:16: if (p->gravity_flipped) {
    0000007D 79               [ 4]  153 	ld	a, c
    0000007E B7               [ 4]  154 	or	a, a
    0000007F 28 25            [12]  155 	jr	Z, 00108$
                                    156 ;src/player.c:17: p->vel_y -= GRAVITY;
    00000081 01 F6 FF         [12]  157 	ld	bc, #0xfff6
    00000084 09               [ 8]  158 	add	hl,bc
    00000085 4D               [ 4]  159 	ld	c, l
    00000086 44               [ 4]  160 	ld	b, h
    00000087 F8 09            [12]  161 	ldhl	sp,	#9
    00000089 2A               [ 8]  162 	ld	a, (hl+)
    0000008A 66               [ 8]  163 	ld	h, (hl)
    0000008B 6F               [ 4]  164 	ld	l, a
    0000008C 79               [ 4]  165 	ld	a, c
    0000008D 22               [ 8]  166 	ld	(hl+), a
    0000008E 70               [ 8]  167 	ld	(hl), b
                                    168 ;src/player.c:18: if (p->vel_y < -MAX_FALL_SPEED) p->vel_y = -MAX_FALL_SPEED;
    0000008F 79               [ 4]  169 	ld	a, c
    00000090 D6 97            [ 8]  170 	sub	a, #0x97
    00000092 78               [ 4]  171 	ld	a, b
    00000093 17               [ 4]  172 	rla
    00000094 3F               [ 4]  173 	ccf
    00000095 1F               [ 4]  174 	rra
    00000096 DE 7F            [ 8]  175 	sbc	a, #0x7f
    00000098 30 3F            [12]  176 	jr	NC, 00111$
    0000009A F8 09            [12]  177 	ldhl	sp,	#9
    0000009C 2A               [ 8]  178 	ld	a, (hl+)
    0000009D 66               [ 8]  179 	ld	h, (hl)
    0000009E 6F               [ 4]  180 	ld	l, a
    0000009F 3E 97            [ 8]  181 	ld	a, #0x97
    000000A1 22               [ 8]  182 	ld	(hl+), a
    000000A2 36 FF            [12]  183 	ld	(hl), #0xff
    000000A4 18 33            [12]  184 	jr	00111$
    000000A6                        185 00108$:
                                    186 ;src/player.c:20: p->vel_y += GRAVITY;
    000000A6 01 0A 00         [12]  187 	ld	bc, #0x000a
    000000A9 09               [ 8]  188 	add	hl, bc
    000000AA 4D               [ 4]  189 	ld	c, l
    000000AB 44               [ 4]  190 	ld	b, h
    000000AC F8 09            [12]  191 	ldhl	sp,	#9
    000000AE 2A               [ 8]  192 	ld	a, (hl+)
    000000AF 66               [ 8]  193 	ld	h, (hl)
    000000B0 6F               [ 4]  194 	ld	l, a
    000000B1 79               [ 4]  195 	ld	a, c
    000000B2 22               [ 8]  196 	ld	(hl+), a
    000000B3 70               [ 8]  197 	ld	(hl), b
                                    198 ;src/player.c:21: if (p->vel_y > MAX_FALL_SPEED) p->vel_y = MAX_FALL_SPEED;
    000000B4 58               [ 4]  199 	ld	e, b
    000000B5 16 00            [ 8]  200 	ld	d, #0x00
    000000B7 3E 69            [ 8]  201 	ld	a, #0x69
    000000B9 B9               [ 4]  202 	cp	a, c
    000000BA 3E 00            [ 8]  203 	ld	a, #0x00
    000000BC 98               [ 4]  204 	sbc	a, b
    000000BD CB 7B            [ 8]  205 	bit	7, e
    000000BF 28 07            [12]  206 	jr	Z, 01053$
    000000C1 CB 7A            [ 8]  207 	bit	7, d
    000000C3 20 08            [12]  208 	jr	NZ, 01054$
    000000C5 BF               [ 4]  209 	cp	a, a
    000000C6 18 05            [12]  210 	jr	01054$
    000000C8                        211 01053$:
    000000C8 CB 7A            [ 8]  212 	bit	7, d
    000000CA 28 01            [12]  213 	jr	Z, 01054$
    000000CC 37               [ 4]  214 	scf
    000000CD                        215 01054$:
    000000CD 30 0A            [12]  216 	jr	NC, 00111$
    000000CF F8 09            [12]  217 	ldhl	sp,	#9
    000000D1 2A               [ 8]  218 	ld	a, (hl+)
    000000D2 66               [ 8]  219 	ld	h, (hl)
    000000D3 6F               [ 4]  220 	ld	l, a
    000000D4 3E 69            [ 8]  221 	ld	a, #0x69
    000000D6 22               [ 8]  222 	ld	(hl+), a
    000000D7 36 00            [12]  223 	ld	(hl), #0x00
    000000D9                        224 00111$:
                                    225 ;src/player.c:27: if (joy & J_A) p->vel_y = (p->gravity_flipped) ? -JUMP_FORCE : JUMP_FORCE;
    000000D9 F8 2A            [12]  226 	ldhl	sp,	#42
    000000DB 7E               [ 8]  227 	ld	a, (hl)
    000000DC E6 10            [ 8]  228 	and	a, #0x10
    000000DE F8 0B            [12]  229 	ldhl	sp,	#11
    000000E0 22               [ 8]  230 	ld	(hl+), a
    000000E1 36 00            [12]  231 	ld	(hl), #0x00
                                    232 ;src/player.c:28: p->world_y += (int8_t)(p->vel_y >> 4);
    000000E3 F8 2B            [12]  233 	ldhl	sp,#43
    000000E5 2A               [ 8]  234 	ld	a, (hl+)
    000000E6 5F               [ 4]  235 	ld	e, a
    000000E7 56               [ 8]  236 	ld	d, (hl)
    000000E8 21 02 00         [12]  237 	ld	hl, #0x0002
    000000EB 19               [ 8]  238 	add	hl, de
    000000EC E5               [16]  239 	push	hl
    000000ED 7D               [ 4]  240 	ld	a, l
    000000EE F8 0F            [12]  241 	ldhl	sp,	#15
    000000F0 77               [ 8]  242 	ld	(hl), a
    000000F1 E1               [12]  243 	pop	hl
    000000F2 7C               [ 4]  244 	ld	a, h
    000000F3 F8 0E            [12]  245 	ldhl	sp,	#14
    000000F5 77               [ 8]  246 	ld	(hl), a
                                    247 ;src/player.c:26: if (player_noclip) {
    000000F6 FAr00r00         [16]  248 	ld	a, (#_player_noclip)
    000000F9 B7               [ 4]  249 	or	a, a
    000000FA 28 53            [12]  250 	jr	Z, 00115$
                                    251 ;src/player.c:27: if (joy & J_A) p->vel_y = (p->gravity_flipped) ? -JUMP_FORCE : JUMP_FORCE;
    000000FC AF               [ 4]  252 	xor	a, a
    000000FD F8 0B            [12]  253 	ldhl	sp,	#11
    000000FF B6               [ 8]  254 	or	a, (hl)
    00000100 28 19            [12]  255 	jr	Z, 00113$
    00000102 F8 07            [12]  256 	ldhl	sp,#7
    00000104 2A               [ 8]  257 	ld	a, (hl+)
    00000105 5F               [ 4]  258 	ld	e, a
    00000106 56               [ 8]  259 	ld	d, (hl)
    00000107 1A               [ 8]  260 	ld	a, (de)
    00000108 B7               [ 4]  261 	or	a, a
    00000109 3E 5D            [ 8]  262 	ld	a, #0x5d
    0000010B 20 02            [12]  263 	jr	NZ, 00274$
    0000010D 3E A3            [ 8]  264 	ld	a, #0xa3
    0000010F                        265 00274$:
    0000010F 4F               [ 4]  266 	ld	c, a
    00000110 07               [ 4]  267 	rlca
    00000111 9F               [ 4]  268 	sbc	a, a
    00000112 47               [ 4]  269 	ld	b, a
    00000113 F8 09            [12]  270 	ldhl	sp,	#9
    00000115 2A               [ 8]  271 	ld	a, (hl+)
    00000116 66               [ 8]  272 	ld	h, (hl)
    00000117 6F               [ 4]  273 	ld	l, a
    00000118 79               [ 4]  274 	ld	a, c
    00000119 22               [ 8]  275 	ld	(hl+), a
    0000011A 70               [ 8]  276 	ld	(hl), b
    0000011B                        277 00113$:
                                    278 ;src/player.c:28: p->world_y += (int8_t)(p->vel_y >> 4);
    0000011B F8 0D            [12]  279 	ldhl	sp,#13
    0000011D 2A               [ 8]  280 	ld	a, (hl+)
    0000011E 5F               [ 4]  281 	ld	e, a
    0000011F 56               [ 8]  282 	ld	d, (hl)
    00000120 1A               [ 8]  283 	ld	a, (de)
    00000121 4F               [ 4]  284 	ld	c, a
    00000122 13               [ 8]  285 	inc	de
    00000123 1A               [ 8]  286 	ld	a, (de)
    00000124 47               [ 4]  287 	ld	b, a
    00000125 F8 09            [12]  288 	ldhl	sp,#9
    00000127 2A               [ 8]  289 	ld	a, (hl+)
    00000128 5F               [ 4]  290 	ld	e, a
    00000129 56               [ 8]  291 	ld	d, (hl)
    0000012A 1A               [ 8]  292 	ld	a, (de)
    0000012B 6F               [ 4]  293 	ld	l, a
    0000012C 13               [ 8]  294 	inc	de
    0000012D 1A               [ 8]  295 	ld	a, (de)
    0000012E 67               [ 4]  296 	ld	h, a
    0000012F AF               [ 4]  297 	xor	a, a
    00000130 29               [ 8]  298 	add	hl, hl
    00000131 30 01            [12]  299 	jr	nc,01055$
    00000133 3D               [ 4]  300 	dec	a
    00000134                        301 01055$:
    00000134 29               [ 8]  302 	add	hl, hl
    00000135 17               [ 4]  303 	rla
    00000136 29               [ 8]  304 	add	hl, hl
    00000137 17               [ 4]  305 	rla
    00000138 29               [ 8]  306 	add	hl, hl
    00000139 17               [ 4]  307 	rla
    0000013A 5F               [ 4]  308 	ld	e, a
    0000013B 7C               [ 4]  309 	ld	a, h
    0000013C 6F               [ 4]  310 	ld	l, a
    0000013D 07               [ 4]  311 	rlca
    0000013E 9F               [ 4]  312 	sbc	a, a
    0000013F 67               [ 4]  313 	ld	h, a
    00000140 09               [ 8]  314 	add	hl, bc
    00000141 4D               [ 4]  315 	ld	c, l
    00000142 44               [ 4]  316 	ld	b, h
    00000143 F8 0D            [12]  317 	ldhl	sp,	#13
    00000145 2A               [ 8]  318 	ld	a, (hl+)
    00000146 66               [ 8]  319 	ld	h, (hl)
    00000147 6F               [ 4]  320 	ld	l, a
    00000148 79               [ 4]  321 	ld	a, c
    00000149 22               [ 8]  322 	ld	(hl+), a
    0000014A 70               [ 8]  323 	ld	(hl), b
                                    324 ;src/player.c:29: return 0;
    0000014B AF               [ 4]  325 	xor	a, a
    0000014C C3r37r0D         [16]  326 	jp	00271$
    0000014F                        327 00115$:
                                    328 ;src/player.c:33: if ((joy & J_A) && p->on_ground) {
    0000014F AF               [ 4]  329 	xor	a, a
    00000150 F8 0B            [12]  330 	ldhl	sp,	#11
    00000152 B6               [ 8]  331 	or	a, (hl)
    00000153 28 28            [12]  332 	jr	Z, 00117$
    00000155 F8 05            [12]  333 	ldhl	sp,#5
    00000157 2A               [ 8]  334 	ld	a, (hl+)
    00000158 5F               [ 4]  335 	ld	e, a
    00000159 56               [ 8]  336 	ld	d, (hl)
    0000015A 1A               [ 8]  337 	ld	a, (de)
    0000015B B7               [ 4]  338 	or	a, a
    0000015C 28 1F            [12]  339 	jr	Z, 00117$
                                    340 ;src/player.c:34: p->vel_y = (p->gravity_flipped) ? -JUMP_FORCE : JUMP_FORCE;
    0000015E 23               [ 8]  341 	inc	hl
    0000015F 2A               [ 8]  342 	ld	a, (hl+)
    00000160 5F               [ 4]  343 	ld	e, a
    00000161 56               [ 8]  344 	ld	d, (hl)
    00000162 1A               [ 8]  345 	ld	a, (de)
    00000163 B7               [ 4]  346 	or	a, a
    00000164 3E 5D            [ 8]  347 	ld	a, #0x5d
    00000166 20 02            [12]  348 	jr	NZ, 00276$
    00000168 3E A3            [ 8]  349 	ld	a, #0xa3
    0000016A                        350 00276$:
    0000016A 4F               [ 4]  351 	ld	c, a
    0000016B 07               [ 4]  352 	rlca
    0000016C 9F               [ 4]  353 	sbc	a, a
    0000016D 47               [ 4]  354 	ld	b, a
    0000016E F8 09            [12]  355 	ldhl	sp,	#9
    00000170 2A               [ 8]  356 	ld	a, (hl+)
    00000171 66               [ 8]  357 	ld	h, (hl)
    00000172 6F               [ 4]  358 	ld	l, a
    00000173 79               [ 4]  359 	ld	a, c
    00000174 22               [ 8]  360 	ld	(hl+), a
    00000175 70               [ 8]  361 	ld	(hl), b
                                    362 ;src/player.c:35: p->on_ground = 0;
    00000176 F8 05            [12]  363 	ldhl	sp,	#5
    00000178 2A               [ 8]  364 	ld	a, (hl+)
    00000179 66               [ 8]  365 	ld	h, (hl)
    0000017A 6F               [ 4]  366 	ld	l, a
    0000017B 36 00            [12]  367 	ld	(hl), #0x00
    0000017D                        368 00117$:
                                    369 ;src/player.c:39: int8_t pixels = (int8_t)(p->vel_y >> 4);
    0000017D F8 09            [12]  370 	ldhl	sp,#9
    0000017F 2A               [ 8]  371 	ld	a, (hl+)
    00000180 5F               [ 4]  372 	ld	e, a
    00000181 56               [ 8]  373 	ld	d, (hl)
    00000182 1A               [ 8]  374 	ld	a, (de)
    00000183 6F               [ 4]  375 	ld	l, a
    00000184 13               [ 8]  376 	inc	de
    00000185 1A               [ 8]  377 	ld	a, (de)
    00000186 67               [ 4]  378 	ld	h, a
    00000187 29               [ 8]  379 	add	hl, hl
    00000188 29               [ 8]  380 	add	hl, hl
    00000189 29               [ 8]  381 	add	hl, hl
    0000018A 29               [ 8]  382 	add	hl, hl
    0000018B 7C               [ 4]  383 	ld	a, h
    0000018C F8 0F            [12]  384 	ldhl	sp,	#15
                                    385 ;src/player.c:40: int16_t ny = p->world_y + pixels;
    0000018E 32               [ 8]  386 	ld	(hl-), a
    0000018F 2B               [ 8]  387 	dec	hl
    00000190 2A               [ 8]  388 	ld	a, (hl+)
    00000191 5F               [ 4]  389 	ld	e, a
    00000192 2A               [ 8]  390 	ld	a, (hl+)
    00000193 57               [ 4]  391 	ld	d, a
    00000194 1A               [ 8]  392 	ld	a, (de)
    00000195 4F               [ 4]  393 	ld	c, a
    00000196 13               [ 8]  394 	inc	de
    00000197 1A               [ 8]  395 	ld	a, (de)
    00000198 47               [ 4]  396 	ld	b, a
    00000199 2A               [ 8]  397 	ld	a, (hl+)
    0000019A 5F               [ 4]  398 	ld	e, a
    0000019B 07               [ 4]  399 	rlca
    0000019C 9F               [ 4]  400 	sbc	a, a
    0000019D 57               [ 4]  401 	ld	d, a
    0000019E 79               [ 4]  402 	ld	a, c
    0000019F 83               [ 4]  403 	add	a, e
    000001A0 4F               [ 4]  404 	ld	c, a
    000001A1 78               [ 4]  405 	ld	a, b
    000001A2 8A               [ 4]  406 	adc	a, d
    000001A3 71               [ 8]  407 	ld	(hl), c
    000001A4 23               [ 8]  408 	inc	hl
    000001A5 77               [ 8]  409 	ld	(hl), a
                                    410 ;src/player.c:41: p->on_ground = 0;
    000001A6 F8 05            [12]  411 	ldhl	sp,	#5
    000001A8 2A               [ 8]  412 	ld	a, (hl+)
    000001A9 66               [ 8]  413 	ld	h, (hl)
    000001AA 6F               [ 4]  414 	ld	l, a
    000001AB 36 00            [12]  415 	ld	(hl), #0x00
                                    416 ;src/player.c:45: int16_t check_y_foot = (p->gravity_flipped) ? ny : ny + PLAYER_SIZE;
    000001AD F8 07            [12]  417 	ldhl	sp,#7
    000001AF 2A               [ 8]  418 	ld	a, (hl+)
    000001B0 5F               [ 4]  419 	ld	e, a
    000001B1 56               [ 8]  420 	ld	d, (hl)
    000001B2 1A               [ 8]  421 	ld	a, (de)
    000001B3 F8 12            [12]  422 	ldhl	sp,	#18
    000001B5 32               [ 8]  423 	ld	(hl-), a
    000001B6 2B               [ 8]  424 	dec	hl
    000001B7 7E               [ 8]  425 	ld	a, (hl)
    000001B8 F8 13            [12]  426 	ldhl	sp,	#19
    000001BA 32               [ 8]  427 	ld	(hl-), a
    000001BB 2B               [ 8]  428 	dec	hl
    000001BC 7E               [ 8]  429 	ld	a, (hl)
    000001BD F8 14            [12]  430 	ldhl	sp,	#20
    000001BF 32               [ 8]  431 	ld	(hl-), a
    000001C0 2A               [ 8]  432 	ld	a, (hl+)
    000001C1 5F               [ 4]  433 	ld	e, a
    000001C2 56               [ 8]  434 	ld	d, (hl)
    000001C3 21 0F 00         [12]  435 	ld	hl, #0x000f
    000001C6 19               [ 8]  436 	add	hl, de
    000001C7 E5               [16]  437 	push	hl
    000001C8 7D               [ 4]  438 	ld	a, l
    000001C9 F8 17            [12]  439 	ldhl	sp,	#23
    000001CB 77               [ 8]  440 	ld	(hl), a
    000001CC E1               [12]  441 	pop	hl
    000001CD 7C               [ 4]  442 	ld	a, h
    000001CE F8 16            [12]  443 	ldhl	sp,	#22
    000001D0 77               [ 8]  444 	ld	(hl), a
    000001D1 F8 12            [12]  445 	ldhl	sp,	#18
    000001D3 7E               [ 8]  446 	ld	a, (hl)
    000001D4 B7               [ 4]  447 	or	a, a
    000001D5 28 0D            [12]  448 	jr	Z, 00277$
    000001D7 23               [ 8]  449 	inc	hl
    000001D8 7E               [ 8]  450 	ld	a, (hl)
    000001D9 F8 28            [12]  451 	ldhl	sp,	#40
    000001DB 77               [ 8]  452 	ld	(hl), a
    000001DC F8 14            [12]  453 	ldhl	sp,	#20
    000001DE 7E               [ 8]  454 	ld	a, (hl)
    000001DF F8 29            [12]  455 	ldhl	sp,	#41
    000001E1 77               [ 8]  456 	ld	(hl), a
    000001E2 18 0C            [12]  457 	jr	00278$
    000001E4                        458 00277$:
    000001E4 F8 15            [12]  459 	ldhl	sp,	#21
    000001E6 7E               [ 8]  460 	ld	a, (hl)
    000001E7 F8 28            [12]  461 	ldhl	sp,	#40
    000001E9 77               [ 8]  462 	ld	(hl), a
    000001EA F8 16            [12]  463 	ldhl	sp,	#22
    000001EC 7E               [ 8]  464 	ld	a, (hl)
    000001ED F8 29            [12]  465 	ldhl	sp,	#41
    000001EF 77               [ 8]  466 	ld	(hl), a
    000001F0                        467 00278$:
    000001F0 F8 28            [12]  468 	ldhl	sp,	#40
    000001F2 7E               [ 8]  469 	ld	a, (hl)
    000001F3 F8 24            [12]  470 	ldhl	sp,	#36
    000001F5 77               [ 8]  471 	ld	(hl), a
    000001F6 F8 29            [12]  472 	ldhl	sp,	#41
    000001F8 7E               [ 8]  473 	ld	a, (hl)
    000001F9 F8 25            [12]  474 	ldhl	sp,	#37
    000001FB 77               [ 8]  475 	ld	(hl), a
                                    476 ;src/player.c:46: int16_t check_y_head = (p->gravity_flipped) ? ny + PLAYER_SIZE : ny;
    000001FC F8 12            [12]  477 	ldhl	sp,	#18
    000001FE 7E               [ 8]  478 	ld	a, (hl)
    000001FF B7               [ 4]  479 	or	a, a
    00000200 28 0E            [12]  480 	jr	Z, 00279$
    00000202 F8 15            [12]  481 	ldhl	sp,	#21
    00000204 7E               [ 8]  482 	ld	a, (hl)
    00000205 F8 28            [12]  483 	ldhl	sp,	#40
    00000207 77               [ 8]  484 	ld	(hl), a
    00000208 F8 16            [12]  485 	ldhl	sp,	#22
    0000020A 7E               [ 8]  486 	ld	a, (hl)
    0000020B F8 29            [12]  487 	ldhl	sp,	#41
    0000020D 77               [ 8]  488 	ld	(hl), a
    0000020E 18 0C            [12]  489 	jr	00280$
    00000210                        490 00279$:
    00000210 F8 10            [12]  491 	ldhl	sp,	#16
    00000212 7E               [ 8]  492 	ld	a, (hl)
    00000213 F8 28            [12]  493 	ldhl	sp,	#40
    00000215 77               [ 8]  494 	ld	(hl), a
    00000216 F8 11            [12]  495 	ldhl	sp,	#17
    00000218 7E               [ 8]  496 	ld	a, (hl)
    00000219 F8 29            [12]  497 	ldhl	sp,	#41
    0000021B 77               [ 8]  498 	ld	(hl), a
    0000021C                        499 00280$:
    0000021C F8 28            [12]  500 	ldhl	sp,	#40
    0000021E 7E               [ 8]  501 	ld	a, (hl)
    0000021F F8 17            [12]  502 	ldhl	sp,	#23
    00000221 77               [ 8]  503 	ld	(hl), a
    00000222 F8 29            [12]  504 	ldhl	sp,	#41
    00000224 7E               [ 8]  505 	ld	a, (hl)
    00000225 F8 18            [12]  506 	ldhl	sp,	#24
    00000227 77               [ 8]  507 	ld	(hl), a
                                    508 ;src/player.c:49: uint8_t cl = col_at(p->world_x + 2, check_y_foot, map, map_w, map_h);
    00000228 F8 33            [12]  509 	ldhl	sp,	#51
    0000022A 7E               [ 8]  510 	ld	a, (hl)
    0000022B F8 19            [12]  511 	ldhl	sp,	#25
    0000022D 77               [ 8]  512 	ld	(hl), a
    0000022E F8 34            [12]  513 	ldhl	sp,	#52
    00000230 7E               [ 8]  514 	ld	a, (hl)
    00000231 F8 1A            [12]  515 	ldhl	sp,	#26
    00000233 77               [ 8]  516 	ld	(hl), a
    00000234 F8 31            [12]  517 	ldhl	sp,	#49
    00000236 7E               [ 8]  518 	ld	a, (hl)
    00000237 F8 1B            [12]  519 	ldhl	sp,	#27
    00000239 77               [ 8]  520 	ld	(hl), a
    0000023A F8 32            [12]  521 	ldhl	sp,	#50
    0000023C 7E               [ 8]  522 	ld	a, (hl)
    0000023D F8 1C            [12]  523 	ldhl	sp,	#28
    0000023F 77               [ 8]  524 	ld	(hl), a
    00000240 F8 2F            [12]  525 	ldhl	sp,	#47
    00000242 7E               [ 8]  526 	ld	a, (hl)
    00000243 F8 1D            [12]  527 	ldhl	sp,	#29
    00000245 77               [ 8]  528 	ld	(hl), a
    00000246 F8 30            [12]  529 	ldhl	sp,	#48
    00000248 7E               [ 8]  530 	ld	a, (hl)
    00000249 F8 1E            [12]  531 	ldhl	sp,	#30
    0000024B 77               [ 8]  532 	ld	(hl), a
    0000024C F8 2B            [12]  533 	ldhl	sp,	#43
    0000024E 7E               [ 8]  534 	ld	a, (hl)
    0000024F F8 1F            [12]  535 	ldhl	sp,	#31
    00000251 77               [ 8]  536 	ld	(hl), a
    00000252 F8 2C            [12]  537 	ldhl	sp,	#44
    00000254 7E               [ 8]  538 	ld	a, (hl)
    00000255 F8 20            [12]  539 	ldhl	sp,	#32
    00000257 32               [ 8]  540 	ld	(hl-), a
    00000258 2A               [ 8]  541 	ld	a, (hl+)
    00000259 5F               [ 4]  542 	ld	e, a
    0000025A 56               [ 8]  543 	ld	d, (hl)
    0000025B 1A               [ 8]  544 	ld	a, (de)
    0000025C 4F               [ 4]  545 	ld	c, a
    0000025D 13               [ 8]  546 	inc	de
    0000025E 1A               [ 8]  547 	ld	a, (de)
    0000025F F8 28            [12]  548 	ldhl	sp,	#40
    00000261 71               [ 8]  549 	ld	(hl), c
    00000262 23               [ 8]  550 	inc	hl
    00000263 32               [ 8]  551 	ld	(hl-), a
    00000264 2A               [ 8]  552 	ld	a, (hl+)
    00000265 4F               [ 4]  553 	ld	c, a
    00000266 46               [ 8]  554 	ld	b, (hl)
    00000267 03               [ 8]  555 	inc	bc
    00000268 03               [ 8]  556 	inc	bc
    00000269 F8 21            [12]  557 	ldhl	sp,	#33
    0000026B 79               [ 4]  558 	ld	a, c
    0000026C 22               [ 8]  559 	ld	(hl+), a
    0000026D 78               [ 4]  560 	ld	a, b
    0000026E 32               [ 8]  561 	ld	(hl-), a
    0000026F 7E               [ 8]  562 	ld	a, (hl)
    00000270 F8 26            [12]  563 	ldhl	sp,	#38
    00000272 77               [ 8]  564 	ld	(hl), a
    00000273 F8 22            [12]  565 	ldhl	sp,	#34
    00000275 7E               [ 8]  566 	ld	a, (hl)
    00000276 F8 27            [12]  567 	ldhl	sp,	#39
    00000278 77               [ 8]  568 	ld	(hl), a
    00000279 F8 24            [12]  569 	ldhl	sp,	#36
    0000027B 2A               [ 8]  570 	ld	a, (hl+)
    0000027C 7E               [ 8]  571 	ld	a, (hl)
    0000027D 07               [ 4]  572 	rlca
    0000027E E6 01            [ 8]  573 	and	a,#0x01
    00000280 F8 02            [12]  574 	ldhl	sp,	#2
    00000282 77               [ 8]  575 	ld	(hl), a
                                    576 ;include/collision.h:53: uint16_t my = (uint16_t)world_py >> 4;
    00000283 F8 24            [12]  577 	ldhl	sp,	#36
    00000285 2A               [ 8]  578 	ld	a, (hl+)
    00000286 4F               [ 4]  579 	ld	c, a
    00000287 3A               [ 8]  580 	ld	a, (hl-)
    00000288 2B               [ 8]  581 	dec	hl
    00000289 47               [ 4]  582 	ld	b, a
    0000028A 79               [ 4]  583 	ld	a, c
    0000028B 22               [ 8]  584 	ld	(hl+), a
    0000028C 70               [ 8]  585 	ld	(hl), b
    0000028D CB 3E            [16]  586 	srl	(hl)
    0000028F 2B               [ 8]  587 	dec	hl
    00000290 CB 1E            [16]  588 	rr	(hl)
    00000292 23               [ 8]  589 	inc	hl
    00000293 CB 3E            [16]  590 	srl	(hl)
    00000295 2B               [ 8]  591 	dec	hl
    00000296 CB 1E            [16]  592 	rr	(hl)
    00000298 23               [ 8]  593 	inc	hl
    00000299 CB 3E            [16]  594 	srl	(hl)
    0000029B 2B               [ 8]  595 	dec	hl
    0000029C CB 1E            [16]  596 	rr	(hl)
    0000029E 23               [ 8]  597 	inc	hl
    0000029F CB 3E            [16]  598 	srl	(hl)
    000002A1 2B               [ 8]  599 	dec	hl
    000002A2 CB 1E            [16]  600 	rr	(hl)
                                    601 ;src/player.c:49: uint8_t cl = col_at(p->world_x + 2, check_y_foot, map, map_w, map_h);
    000002A4 F8 02            [12]  602 	ldhl	sp,	#2
    000002A6 7E               [ 8]  603 	ld	a, (hl)
    000002A7 B7               [ 4]  604 	or	a, a
    000002A8 28 06            [12]  605 	jr	Z, 00209$
    000002AA F8 27            [12]  606 	ldhl	sp,	#39
    000002AC 36 00            [12]  607 	ld	(hl), #0x00
    000002AE 18 76            [12]  608 	jr	00214$
    000002B0                        609 00209$:
                                    610 ;include/collision.h:52: uint16_t mx = world_px >> 4;
    000002B0 F8 26            [12]  611 	ldhl	sp,	#38
    000002B2 7E               [ 8]  612 	ld	a, (hl)
    000002B3 F8 00            [12]  613 	ldhl	sp,	#0
    000002B5 77               [ 8]  614 	ld	(hl), a
    000002B6 F8 27            [12]  615 	ldhl	sp,	#39
    000002B8 7E               [ 8]  616 	ld	a, (hl)
    000002B9 F8 01            [12]  617 	ldhl	sp,	#1
    000002BB 77               [ 8]  618 	ld	(hl), a
    000002BC CB 3E            [16]  619 	srl	(hl)
    000002BE 2B               [ 8]  620 	dec	hl
    000002BF CB 1E            [16]  621 	rr	(hl)
    000002C1 23               [ 8]  622 	inc	hl
    000002C2 CB 3E            [16]  623 	srl	(hl)
    000002C4 2B               [ 8]  624 	dec	hl
    000002C5 CB 1E            [16]  625 	rr	(hl)
    000002C7 23               [ 8]  626 	inc	hl
    000002C8 CB 3E            [16]  627 	srl	(hl)
    000002CA 2B               [ 8]  628 	dec	hl
    000002CB CB 1E            [16]  629 	rr	(hl)
    000002CD 23               [ 8]  630 	inc	hl
    000002CE CB 3E            [16]  631 	srl	(hl)
    000002D0 2B               [ 8]  632 	dec	hl
    000002D1 CB 1E            [16]  633 	rr	(hl)
                                    634 ;include/collision.h:53: uint16_t my = (uint16_t)world_py >> 4;
    000002D3 F8 23            [12]  635 	ldhl	sp,	#35
    000002D5 7E               [ 8]  636 	ld	a, (hl)
    000002D6 F8 26            [12]  637 	ldhl	sp,	#38
    000002D8 32               [ 8]  638 	ld	(hl-), a
    000002D9 2B               [ 8]  639 	dec	hl
    000002DA 7E               [ 8]  640 	ld	a, (hl)
    000002DB F8 27            [12]  641 	ldhl	sp,	#39
    000002DD 77               [ 8]  642 	ld	(hl), a
                                    643 ;src/player.c:49: uint8_t cl = col_at(p->world_x + 2, check_y_foot, map, map_w, map_h);
    000002DE F8 00            [12]  644 	ldhl	sp,	#0
    000002E0 5D               [ 4]  645 	ld	e, l
    000002E1 54               [ 4]  646 	ld	d, h
    000002E2 F8 1B            [12]  647 	ldhl	sp,	#27
    000002E4 1A               [ 8]  648 	ld	a, (de)
    000002E5 13               [ 8]  649 	inc	de
    000002E6 96               [ 8]  650 	sub	a, (hl)
    000002E7 23               [ 8]  651 	inc	hl
    000002E8 1A               [ 8]  652 	ld	a, (de)
    000002E9 9E               [ 8]  653 	sbc	a, (hl)
    000002EA 30 0E            [12]  654 	jr	NC, 00211$
    000002EC F8 26            [12]  655 	ldhl	sp,	#38
    000002EE 5D               [ 4]  656 	ld	e, l
    000002EF 54               [ 4]  657 	ld	d, h
    000002F0 F8 19            [12]  658 	ldhl	sp,	#25
    000002F2 1A               [ 8]  659 	ld	a, (de)
    000002F3 13               [ 8]  660 	inc	de
    000002F4 96               [ 8]  661 	sub	a, (hl)
    000002F5 23               [ 8]  662 	inc	hl
    000002F6 1A               [ 8]  663 	ld	a, (de)
    000002F7 9E               [ 8]  664 	sbc	a, (hl)
    000002F8 38 06            [12]  665 	jr	C, 00212$
    000002FA                        666 00211$:
    000002FA F8 27            [12]  667 	ldhl	sp,	#39
    000002FC 36 07            [12]  668 	ld	(hl), #0x07
    000002FE 18 26            [12]  669 	jr	00214$
    00000300                        670 00212$:
    00000300 F8 1B            [12]  671 	ldhl	sp,	#27
    00000302 2A               [ 8]  672 	ld	a, (hl+)
    00000303 4F               [ 4]  673 	ld	c, a
    00000304 46               [ 8]  674 	ld	b, (hl)
    00000305 F8 26            [12]  675 	ldhl	sp,	#38
    00000307 2A               [ 8]  676 	ld	a, (hl+)
    00000308 5F               [ 4]  677 	ld	e, a
    00000309 56               [ 8]  678 	ld	d, (hl)
    0000030A CDr00r00         [24]  679 	call	__mulint
    0000030D E1               [12]  680 	pop	hl
    0000030E E5               [16]  681 	push	hl
    0000030F 09               [ 8]  682 	add	hl, bc
    00000310 4D               [ 4]  683 	ld	c, l
    00000311 44               [ 4]  684 	ld	b, h
    00000312 F8 1D            [12]  685 	ldhl	sp,	#29
    00000314 2A               [ 8]  686 	ld	a,	(hl+)
    00000315 66               [ 8]  687 	ld	h, (hl)
    00000316 6F               [ 4]  688 	ld	l, a
    00000317 09               [ 8]  689 	add	hl, bc
    00000318 4D               [ 4]  690 	ld	c, l
    00000319 44               [ 4]  691 	ld	b, h
    0000031A 0A               [ 8]  692 	ld	a, (bc)
    0000031B 4F               [ 4]  693 	ld	c, a
    0000031C 21r00r00         [12]  694 	ld	hl, #_famidash_metatile_collision
    0000031F 06 00            [ 8]  695 	ld	b, #0x00
    00000321 09               [ 8]  696 	add	hl, bc
    00000322 7E               [ 8]  697 	ld	a, (hl)
    00000323 F8 27            [12]  698 	ldhl	sp,	#39
    00000325 77               [ 8]  699 	ld	(hl), a
    00000326                        700 00214$:
    00000326 F8 27            [12]  701 	ldhl	sp,	#39
    00000328 3A               [ 8]  702 	ld	a, (hl-)
    00000329 2B               [ 8]  703 	dec	hl
    0000032A 77               [ 8]  704 	ld	(hl), a
                                    705 ;src/player.c:50: uint8_t cr = col_at(p->world_x + PLAYER_SIZE - 2, check_y_foot, map, map_w, map_h);
    0000032B F8 28            [12]  706 	ldhl	sp,#40
    0000032D 2A               [ 8]  707 	ld	a, (hl+)
    0000032E 5F               [ 4]  708 	ld	e, a
    0000032F 56               [ 8]  709 	ld	d, (hl)
    00000330 21 0D 00         [12]  710 	ld	hl, #0x000d
    00000333 19               [ 8]  711 	add	hl, de
    00000334 4D               [ 4]  712 	ld	c, l
    00000335 7C               [ 4]  713 	ld	a, h
    00000336 F8 26            [12]  714 	ldhl	sp,	#38
    00000338 71               [ 8]  715 	ld	(hl), c
    00000339 23               [ 8]  716 	inc	hl
    0000033A 32               [ 8]  717 	ld	(hl-), a
    0000033B 2A               [ 8]  718 	ld	a, (hl+)
    0000033C 23               [ 8]  719 	inc	hl
    0000033D 32               [ 8]  720 	ld	(hl-), a
    0000033E 2A               [ 8]  721 	ld	a, (hl+)
    0000033F 23               [ 8]  722 	inc	hl
    00000340 77               [ 8]  723 	ld	(hl), a
    00000341 F8 02            [12]  724 	ldhl	sp,	#2
    00000343 7E               [ 8]  725 	ld	a, (hl)
    00000344 B7               [ 4]  726 	or	a, a
    00000345 28 06            [12]  727 	jr	Z, 00216$
    00000347 F8 29            [12]  728 	ldhl	sp,	#41
    00000349 36 00            [12]  729 	ld	(hl), #0x00
    0000034B 18 61            [12]  730 	jr	00221$
    0000034D                        731 00216$:
                                    732 ;include/collision.h:52: uint16_t mx = world_px >> 4;
    0000034D F8 29            [12]  733 	ldhl	sp,	#41
    0000034F CB 3E            [16]  734 	srl	(hl)
    00000351 2B               [ 8]  735 	dec	hl
    00000352 CB 1E            [16]  736 	rr	(hl)
    00000354 23               [ 8]  737 	inc	hl
    00000355 CB 3E            [16]  738 	srl	(hl)
    00000357 2B               [ 8]  739 	dec	hl
    00000358 CB 1E            [16]  740 	rr	(hl)
    0000035A 23               [ 8]  741 	inc	hl
    0000035B CB 3E            [16]  742 	srl	(hl)
    0000035D 2B               [ 8]  743 	dec	hl
    0000035E CB 1E            [16]  744 	rr	(hl)
    00000360 23               [ 8]  745 	inc	hl
    00000361 CB 3E            [16]  746 	srl	(hl)
    00000363 2B               [ 8]  747 	dec	hl
    00000364 CB 1E            [16]  748 	rr	(hl)
                                    749 ;include/collision.h:53: uint16_t my = (uint16_t)world_py >> 4;
    00000366 F8 23            [12]  750 	ldhl	sp,	#35
    00000368 2A               [ 8]  751 	ld	a, (hl+)
    00000369 5F               [ 4]  752 	ld	e, a
    0000036A 56               [ 8]  753 	ld	d, (hl)
                                    754 ;src/player.c:50: uint8_t cr = col_at(p->world_x + PLAYER_SIZE - 2, check_y_foot, map, map_w, map_h);
    0000036B D5               [16]  755 	push	de
    0000036C F8 2A            [12]  756 	ldhl	sp,	#42
    0000036E 5D               [ 4]  757 	ld	e, l
    0000036F 54               [ 4]  758 	ld	d, h
    00000370 F8 1D            [12]  759 	ldhl	sp,	#29
    00000372 1A               [ 8]  760 	ld	a, (de)
    00000373 13               [ 8]  761 	inc	de
    00000374 96               [ 8]  762 	sub	a, (hl)
    00000375 23               [ 8]  763 	inc	hl
    00000376 1A               [ 8]  764 	ld	a, (de)
    00000377 9E               [ 8]  765 	sbc	a, (hl)
    00000378 D1               [12]  766 	pop	de
    00000379 30 09            [12]  767 	jr	NC, 00218$
    0000037B F8 19            [12]  768 	ldhl	sp,	#25
    0000037D 7B               [ 4]  769 	ld	a, e
    0000037E 96               [ 8]  770 	sub	a, (hl)
    0000037F 23               [ 8]  771 	inc	hl
    00000380 7A               [ 4]  772 	ld	a, d
    00000381 9E               [ 8]  773 	sbc	a, (hl)
    00000382 38 06            [12]  774 	jr	C, 00219$
    00000384                        775 00218$:
    00000384 F8 29            [12]  776 	ldhl	sp,	#41
    00000386 36 07            [12]  777 	ld	(hl), #0x07
    00000388 18 24            [12]  778 	jr	00221$
    0000038A                        779 00219$:
    0000038A F8 1B            [12]  780 	ldhl	sp,	#27
    0000038C 2A               [ 8]  781 	ld	a, (hl+)
    0000038D 4F               [ 4]  782 	ld	c, a
    0000038E 46               [ 8]  783 	ld	b, (hl)
    0000038F CDr00r00         [24]  784 	call	__mulint
    00000392 F8 28            [12]  785 	ldhl	sp,	#40
    00000394 2A               [ 8]  786 	ld	a,	(hl+)
    00000395 66               [ 8]  787 	ld	h, (hl)
    00000396 6F               [ 4]  788 	ld	l, a
    00000397 09               [ 8]  789 	add	hl, bc
    00000398 4D               [ 4]  790 	ld	c, l
    00000399 44               [ 4]  791 	ld	b, h
    0000039A F8 1D            [12]  792 	ldhl	sp,	#29
    0000039C 2A               [ 8]  793 	ld	a,	(hl+)
    0000039D 66               [ 8]  794 	ld	h, (hl)
    0000039E 6F               [ 4]  795 	ld	l, a
    0000039F 09               [ 8]  796 	add	hl, bc
    000003A0 4D               [ 4]  797 	ld	c, l
    000003A1 44               [ 4]  798 	ld	b, h
    000003A2 0A               [ 8]  799 	ld	a, (bc)
    000003A3 4F               [ 4]  800 	ld	c, a
    000003A4 21r00r00         [12]  801 	ld	hl, #_famidash_metatile_collision
    000003A7 06 00            [ 8]  802 	ld	b, #0x00
    000003A9 09               [ 8]  803 	add	hl, bc
    000003AA 7E               [ 8]  804 	ld	a, (hl)
    000003AB F8 29            [12]  805 	ldhl	sp,	#41
    000003AD 77               [ 8]  806 	ld	(hl), a
    000003AE                        807 00221$:
    000003AE F8 29            [12]  808 	ldhl	sp,	#41
    000003B0 3A               [ 8]  809 	ld	a, (hl-)
    000003B1 77               [ 8]  810 	ld	(hl), a
                                    811 ;src/player.c:52: uint8_t falling = (p->gravity_flipped) ? (pixels <= 0) : (pixels >= 0);
    000003B2 F8 12            [12]  812 	ldhl	sp,	#18
    000003B4 7E               [ 8]  813 	ld	a, (hl)
    000003B5 B7               [ 4]  814 	or	a, a
    000003B6 28 21            [12]  815 	jr	Z, 00281$
    000003B8 F8 0F            [12]  816 	ldhl	sp,	#15
    000003BA 5E               [ 8]  817 	ld	e, (hl)
    000003BB AF               [ 4]  818 	xor	a, a
    000003BC 57               [ 4]  819 	ld	d, a
    000003BD 96               [ 8]  820 	sub	a, (hl)
    000003BE CB 7B            [ 8]  821 	bit	7, e
    000003C0 28 07            [12]  822 	jr	Z, 01057$
    000003C2 CB 7A            [ 8]  823 	bit	7, d
    000003C4 20 08            [12]  824 	jr	NZ, 01058$
    000003C6 BF               [ 4]  825 	cp	a, a
    000003C7 18 05            [12]  826 	jr	01058$
    000003C9                        827 01057$:
    000003C9 CB 7A            [ 8]  828 	bit	7, d
    000003CB 28 01            [12]  829 	jr	Z, 01058$
    000003CD 37               [ 4]  830 	scf
    000003CE                        831 01058$:
    000003CE 3E 00            [ 8]  832 	ld	a, #0x00
    000003D0 17               [ 4]  833 	rla
    000003D1 F8 29            [12]  834 	ldhl	sp,	#41
    000003D3 77               [ 8]  835 	ld	(hl), a
    000003D4 EE 01            [ 8]  836 	xor	a, #0x01
    000003D6 77               [ 8]  837 	ld	(hl), a
    000003D7 18 0B            [12]  838 	jr	00282$
    000003D9                        839 00281$:
    000003D9 F8 0F            [12]  840 	ldhl	sp,	#15
    000003DB 7E               [ 8]  841 	ld	a, (hl)
    000003DC 07               [ 4]  842 	rlca
    000003DD E6 01            [ 8]  843 	and	a,#0x01
    000003DF EE 01            [ 8]  844 	xor	a, #0x01
    000003E1 F8 29            [12]  845 	ldhl	sp,	#41
    000003E3 77               [ 8]  846 	ld	(hl), a
    000003E4                        847 00282$:
                                    848 ;src/player.c:56: p->world_y = ((ny >> 4) + 1) << 4;
    000003E4 F8 10            [12]  849 	ldhl	sp,#16
    000003E6 2A               [ 8]  850 	ld	a, (hl+)
    000003E7 4F               [ 4]  851 	ld	c, a
    000003E8 46               [ 8]  852 	ld	b, (hl)
    000003E9 CB 28            [ 8]  853 	sra	b
    000003EB CB 19            [ 8]  854 	rr	c
    000003ED CB 28            [ 8]  855 	sra	b
    000003EF CB 19            [ 8]  856 	rr	c
    000003F1 CB 28            [ 8]  857 	sra	b
    000003F3 CB 19            [ 8]  858 	rr	c
    000003F5 CB 28            [ 8]  859 	sra	b
    000003F7 CB 19            [ 8]  860 	rr	c
    000003F9 69               [ 4]  861 	ld	l, c
    000003FA 60               [ 4]  862 	ld	h, b
    000003FB 23               [ 8]  863 	inc	hl
                                    864 ;src/player.c:58: p->world_y = ((ny + PLAYER_SIZE) & ~15) - PLAYER_SIZE - 1;
    000003FC E5               [16]  865 	push	hl
    000003FD F8 17            [12]  866 	ldhl	sp,	#23
    000003FF 7E               [ 8]  867 	ld	a, (hl)
    00000400 E1               [12]  868 	pop	hl
    00000401 E6 F0            [ 8]  869 	and	a, #0xf0
    00000403 E5               [16]  870 	push	hl
    00000404 F8 18            [12]  871 	ldhl	sp,	#24
    00000406 4E               [ 8]  872 	ld	c, (hl)
    00000407 E1               [12]  873 	pop	hl
                                    874 ;src/player.c:56: p->world_y = ((ny >> 4) + 1) << 4;
    00000408 29               [ 8]  875 	add	hl, hl
    00000409 29               [ 8]  876 	add	hl, hl
    0000040A 29               [ 8]  877 	add	hl, hl
    0000040B 29               [ 8]  878 	add	hl, hl
    0000040C 5D               [ 4]  879 	ld	e, l
    0000040D 54               [ 4]  880 	ld	d, h
                                    881 ;src/player.c:58: p->world_y = ((ny + PLAYER_SIZE) & ~15) - PLAYER_SIZE - 1;
    0000040E C6 F0            [ 8]  882 	add	a, #0xf0
    00000410 47               [ 4]  883 	ld	b, a
    00000411 79               [ 4]  884 	ld	a, c
    00000412 CE FF            [ 8]  885 	adc	a, #0xff
                                    886 ;src/player.c:56: p->world_y = ((ny >> 4) + 1) << 4;
    00000414 F8 15            [12]  887 	ldhl	sp,	#21
    00000416 73               [ 8]  888 	ld	(hl), e
    00000417 23               [ 8]  889 	inc	hl
    00000418 72               [ 8]  890 	ld	(hl), d
                                    891 ;src/player.c:58: p->world_y = ((ny + PLAYER_SIZE) & ~15) - PLAYER_SIZE - 1;
    00000419 F8 23            [12]  892 	ldhl	sp,	#35
    0000041B 70               [ 8]  893 	ld	(hl), b
    0000041C 23               [ 8]  894 	inc	hl
    0000041D 77               [ 8]  895 	ld	(hl), a
                                    896 ;src/player.c:54: if (falling && (IS_SOLID(cl) || IS_SOLID(cr))) {
    0000041E F8 29            [12]  897 	ldhl	sp,	#41
    00000420 7E               [ 8]  898 	ld	a, (hl)
    00000421 B7               [ 4]  899 	or	a, a
    00000422 28 6A            [12]  900 	jr	Z, 00145$
    00000424 F8 25            [12]  901 	ldhl	sp,	#37
    00000426 7E               [ 8]  902 	ld	a, (hl)
    00000427 D6 07            [ 8]  903 	sub	a, #0x07
    00000429 28 31            [12]  904 	jr	Z, 00144$
    0000042B F8 25            [12]  905 	ldhl	sp,	#37
    0000042D 7E               [ 8]  906 	ld	a, (hl)
    0000042E D6 09            [ 8]  907 	sub	a, #0x09
    00000430 28 2A            [12]  908 	jr	Z, 00144$
    00000432 F8 25            [12]  909 	ldhl	sp,	#37
    00000434 7E               [ 8]  910 	ld	a, (hl)
    00000435 D6 05            [ 8]  911 	sub	a, #0x05
    00000437 28 23            [12]  912 	jr	Z, 00144$
    00000439 F8 25            [12]  913 	ldhl	sp,	#37
    0000043B 7E               [ 8]  914 	ld	a, (hl)
    0000043C D6 06            [ 8]  915 	sub	a, #0x06
    0000043E 28 1C            [12]  916 	jr	Z, 00144$
    00000440 F8 28            [12]  917 	ldhl	sp,	#40
    00000442 7E               [ 8]  918 	ld	a, (hl)
    00000443 D6 07            [ 8]  919 	sub	a, #0x07
    00000445 28 15            [12]  920 	jr	Z, 00144$
    00000447 F8 28            [12]  921 	ldhl	sp,	#40
    00000449 7E               [ 8]  922 	ld	a, (hl)
    0000044A D6 09            [ 8]  923 	sub	a, #0x09
    0000044C 28 0E            [12]  924 	jr	Z, 00144$
    0000044E F8 28            [12]  925 	ldhl	sp,	#40
    00000450 7E               [ 8]  926 	ld	a, (hl)
    00000451 D6 05            [ 8]  927 	sub	a, #0x05
    00000453 28 07            [12]  928 	jr	Z, 00144$
    00000455 F8 28            [12]  929 	ldhl	sp,	#40
    00000457 7E               [ 8]  930 	ld	a, (hl)
    00000458 D6 06            [ 8]  931 	sub	a, #0x06
    0000045A 20 32            [12]  932 	jr	NZ, 00145$
    0000045C                        933 00144$:
                                    934 ;src/player.c:55: if (p->gravity_flipped) {
    0000045C F8 12            [12]  935 	ldhl	sp,	#18
    0000045E 7E               [ 8]  936 	ld	a, (hl)
    0000045F B7               [ 4]  937 	or	a, a
    00000460 28 0E            [12]  938 	jr	Z, 00120$
                                    939 ;src/player.c:56: p->world_y = ((ny >> 4) + 1) << 4;
    00000462 F8 0D            [12]  940 	ldhl	sp,	#13
    00000464 2A               [ 8]  941 	ld	a, (hl+)
    00000465 5F               [ 4]  942 	ld	e, a
    00000466 56               [ 8]  943 	ld	d, (hl)
    00000467 F8 15            [12]  944 	ldhl	sp,	#21
    00000469 2A               [ 8]  945 	ld	a, (hl+)
    0000046A 12               [ 8]  946 	ld	(de), a
    0000046B 13               [ 8]  947 	inc	de
    0000046C 7E               [ 8]  948 	ld	a, (hl)
    0000046D 12               [ 8]  949 	ld	(de), a
    0000046E 18 0C            [12]  950 	jr	00121$
    00000470                        951 00120$:
                                    952 ;src/player.c:58: p->world_y = ((ny + PLAYER_SIZE) & ~15) - PLAYER_SIZE - 1;
    00000470 F8 0D            [12]  953 	ldhl	sp,	#13
    00000472 2A               [ 8]  954 	ld	a, (hl+)
    00000473 5F               [ 4]  955 	ld	e, a
    00000474 56               [ 8]  956 	ld	d, (hl)
    00000475 F8 23            [12]  957 	ldhl	sp,	#35
    00000477 2A               [ 8]  958 	ld	a, (hl+)
    00000478 12               [ 8]  959 	ld	(de), a
    00000479 13               [ 8]  960 	inc	de
    0000047A 7E               [ 8]  961 	ld	a, (hl)
    0000047B 12               [ 8]  962 	ld	(de), a
    0000047C                        963 00121$:
                                    964 ;src/player.c:60: p->vel_y = 0;
    0000047C F8 09            [12]  965 	ldhl	sp,	#9
    0000047E 2A               [ 8]  966 	ld	a, (hl+)
    0000047F 66               [ 8]  967 	ld	h, (hl)
    00000480 6F               [ 4]  968 	ld	l, a
    00000481 AF               [ 4]  969 	xor	a, a
    00000482 22               [ 8]  970 	ld	(hl+), a
    00000483 77               [ 8]  971 	ld	(hl), a
                                    972 ;src/player.c:61: p->on_ground = 1;
    00000484 F8 05            [12]  973 	ldhl	sp,	#5
    00000486 2A               [ 8]  974 	ld	a, (hl+)
    00000487 66               [ 8]  975 	ld	h, (hl)
    00000488 6F               [ 4]  976 	ld	l, a
    00000489 36 01            [12]  977 	ld	(hl), #0x01
    0000048B C3rD6r07         [16]  978 	jp	00146$
    0000048E                        979 00145$:
                                    980 ;src/player.c:64: uint8_t hl = col_at(p->world_x + 2, check_y_head, map, map_w, map_h);
    0000048E F8 17            [12]  981 	ldhl	sp,	#23
    00000490 2A               [ 8]  982 	ld	a, (hl+)
    00000491 7E               [ 8]  983 	ld	a, (hl)
    00000492 07               [ 4]  984 	rlca
    00000493 E6 01            [ 8]  985 	and	a,#0x01
    00000495 F8 29            [12]  986 	ldhl	sp,	#41
    00000497 77               [ 8]  987 	ld	(hl), a
                                    988 ;include/collision.h:53: uint16_t my = (uint16_t)world_py >> 4;
    00000498 F8 17            [12]  989 	ldhl	sp,	#23
    0000049A 2A               [ 8]  990 	ld	a, (hl+)
    0000049B 4F               [ 4]  991 	ld	c, a
    0000049C 3A               [ 8]  992 	ld	a, (hl-)
    0000049D 47               [ 4]  993 	ld	b, a
    0000049E 79               [ 4]  994 	ld	a, c
    0000049F 22               [ 8]  995 	ld	(hl+), a
    000004A0 70               [ 8]  996 	ld	(hl), b
    000004A1 CB 3E            [16]  997 	srl	(hl)
    000004A3 2B               [ 8]  998 	dec	hl
    000004A4 CB 1E            [16]  999 	rr	(hl)
    000004A6 23               [ 8] 1000 	inc	hl
    000004A7 CB 3E            [16] 1001 	srl	(hl)
    000004A9 2B               [ 8] 1002 	dec	hl
    000004AA CB 1E            [16] 1003 	rr	(hl)
    000004AC 23               [ 8] 1004 	inc	hl
    000004AD CB 3E            [16] 1005 	srl	(hl)
    000004AF 2B               [ 8] 1006 	dec	hl
    000004B0 CB 1E            [16] 1007 	rr	(hl)
    000004B2 23               [ 8] 1008 	inc	hl
    000004B3 CB 3E            [16] 1009 	srl	(hl)
    000004B5 2B               [ 8] 1010 	dec	hl
    000004B6 CB 1E            [16] 1011 	rr	(hl)
                                   1012 ;src/player.c:64: uint8_t hl = col_at(p->world_x + 2, check_y_head, map, map_w, map_h);
    000004B8 F8 29            [12] 1013 	ldhl	sp,	#41
    000004BA 7E               [ 8] 1014 	ld	a, (hl)
    000004BB B7               [ 4] 1015 	or	a, a
    000004BC 28 04            [12] 1016 	jr	Z, 00223$
    000004BE 0E 00            [ 8] 1017 	ld	c, #0x00
    000004C0 18 5C            [12] 1018 	jr	00228$
    000004C2                       1019 00223$:
                                   1020 ;include/collision.h:52: uint16_t mx = world_px >> 4;
    000004C2 F8 22            [12] 1021 	ldhl	sp,	#34
    000004C4 CB 3E            [16] 1022 	srl	(hl)
    000004C6 2B               [ 8] 1023 	dec	hl
    000004C7 CB 1E            [16] 1024 	rr	(hl)
    000004C9 23               [ 8] 1025 	inc	hl
    000004CA CB 3E            [16] 1026 	srl	(hl)
    000004CC 2B               [ 8] 1027 	dec	hl
    000004CD CB 1E            [16] 1028 	rr	(hl)
    000004CF 23               [ 8] 1029 	inc	hl
    000004D0 CB 3E            [16] 1030 	srl	(hl)
    000004D2 2B               [ 8] 1031 	dec	hl
    000004D3 CB 1E            [16] 1032 	rr	(hl)
    000004D5 23               [ 8] 1033 	inc	hl
    000004D6 CB 3E            [16] 1034 	srl	(hl)
    000004D8 2B               [ 8] 1035 	dec	hl
    000004D9 CB 1E            [16] 1036 	rr	(hl)
                                   1037 ;include/collision.h:53: uint16_t my = (uint16_t)world_py >> 4;
    000004DB F8 17            [12] 1038 	ldhl	sp,	#23
    000004DD 2A               [ 8] 1039 	ld	a, (hl+)
    000004DE 5F               [ 4] 1040 	ld	e, a
    000004DF 56               [ 8] 1041 	ld	d, (hl)
                                   1042 ;src/player.c:64: uint8_t hl = col_at(p->world_x + 2, check_y_head, map, map_w, map_h);
    000004E0 D5               [16] 1043 	push	de
    000004E1 F8 23            [12] 1044 	ldhl	sp,	#35
    000004E3 5D               [ 4] 1045 	ld	e, l
    000004E4 54               [ 4] 1046 	ld	d, h
    000004E5 F8 1D            [12] 1047 	ldhl	sp,	#29
    000004E7 1A               [ 8] 1048 	ld	a, (de)
    000004E8 13               [ 8] 1049 	inc	de
    000004E9 96               [ 8] 1050 	sub	a, (hl)
    000004EA 23               [ 8] 1051 	inc	hl
    000004EB 1A               [ 8] 1052 	ld	a, (de)
    000004EC 9E               [ 8] 1053 	sbc	a, (hl)
    000004ED D1               [12] 1054 	pop	de
    000004EE 30 09            [12] 1055 	jr	NC, 00225$
    000004F0 F8 19            [12] 1056 	ldhl	sp,	#25
    000004F2 7B               [ 4] 1057 	ld	a, e
    000004F3 96               [ 8] 1058 	sub	a, (hl)
    000004F4 23               [ 8] 1059 	inc	hl
    000004F5 7A               [ 4] 1060 	ld	a, d
    000004F6 9E               [ 8] 1061 	sbc	a, (hl)
    000004F7 38 04            [12] 1062 	jr	C, 00226$
    000004F9                       1063 00225$:
    000004F9 0E 07            [ 8] 1064 	ld	c, #0x07
    000004FB 18 21            [12] 1065 	jr	00228$
    000004FD                       1066 00226$:
    000004FD F8 1B            [12] 1067 	ldhl	sp,	#27
    000004FF 2A               [ 8] 1068 	ld	a, (hl+)
    00000500 4F               [ 4] 1069 	ld	c, a
    00000501 46               [ 8] 1070 	ld	b, (hl)
    00000502 CDr00r00         [24] 1071 	call	__mulint
    00000505 F8 21            [12] 1072 	ldhl	sp,	#33
    00000507 2A               [ 8] 1073 	ld	a,	(hl+)
    00000508 66               [ 8] 1074 	ld	h, (hl)
    00000509 6F               [ 4] 1075 	ld	l, a
    0000050A 09               [ 8] 1076 	add	hl, bc
    0000050B 4D               [ 4] 1077 	ld	c, l
    0000050C 44               [ 4] 1078 	ld	b, h
    0000050D F8 1D            [12] 1079 	ldhl	sp,	#29
    0000050F 2A               [ 8] 1080 	ld	a,	(hl+)
    00000510 66               [ 8] 1081 	ld	h, (hl)
    00000511 6F               [ 4] 1082 	ld	l, a
    00000512 09               [ 8] 1083 	add	hl, bc
    00000513 4D               [ 4] 1084 	ld	c, l
    00000514 44               [ 4] 1085 	ld	b, h
    00000515 0A               [ 8] 1086 	ld	a, (bc)
    00000516 4F               [ 4] 1087 	ld	c, a
    00000517 21r00r00         [12] 1088 	ld	hl, #_famidash_metatile_collision
    0000051A 06 00            [ 8] 1089 	ld	b, #0x00
    0000051C 09               [ 8] 1090 	add	hl, bc
    0000051D 4E               [ 8] 1091 	ld	c, (hl)
    0000051E                       1092 00228$:
    0000051E F8 28            [12] 1093 	ldhl	sp,	#40
                                   1094 ;src/player.c:65: uint8_t hr = col_at(p->world_x + PLAYER_SIZE - 2, check_y_head, map, map_w, map_h);
    00000520 79               [ 4] 1095 	ld	a, c
    00000521 22               [ 8] 1096 	ld	(hl+), a
    00000522 7E               [ 8] 1097 	ld	a, (hl)
    00000523 B7               [ 4] 1098 	or	a, a
    00000524 28 04            [12] 1099 	jr	Z, 00230$
    00000526 36 00            [12] 1100 	ld	(hl), #0x00
    00000528 18 70            [12] 1101 	jr	00235$
    0000052A                       1102 00230$:
                                   1103 ;include/collision.h:52: uint16_t mx = world_px >> 4;
    0000052A F8 27            [12] 1104 	ldhl	sp,	#39
    0000052C CB 3E            [16] 1105 	srl	(hl)
    0000052E 2B               [ 8] 1106 	dec	hl
    0000052F CB 1E            [16] 1107 	rr	(hl)
    00000531 23               [ 8] 1108 	inc	hl
    00000532 CB 3E            [16] 1109 	srl	(hl)
    00000534 2B               [ 8] 1110 	dec	hl
    00000535 CB 1E            [16] 1111 	rr	(hl)
    00000537 23               [ 8] 1112 	inc	hl
    00000538 CB 3E            [16] 1113 	srl	(hl)
    0000053A 2B               [ 8] 1114 	dec	hl
    0000053B CB 1E            [16] 1115 	rr	(hl)
    0000053D 23               [ 8] 1116 	inc	hl
    0000053E CB 3E            [16] 1117 	srl	(hl)
    00000540 2B               [ 8] 1118 	dec	hl
    00000541 CB 1E            [16] 1119 	rr	(hl)
                                   1120 ;include/collision.h:53: uint16_t my = (uint16_t)world_py >> 4;
    00000543 F8 17            [12] 1121 	ldhl	sp,	#23
    00000545 7E               [ 8] 1122 	ld	a, (hl)
    00000546 F8 21            [12] 1123 	ldhl	sp,	#33
    00000548 77               [ 8] 1124 	ld	(hl), a
    00000549 F8 18            [12] 1125 	ldhl	sp,	#24
    0000054B 7E               [ 8] 1126 	ld	a, (hl)
    0000054C F8 22            [12] 1127 	ldhl	sp,	#34
    0000054E 77               [ 8] 1128 	ld	(hl), a
                                   1129 ;src/player.c:65: uint8_t hr = col_at(p->world_x + PLAYER_SIZE - 2, check_y_head, map, map_w, map_h);
    0000054F F8 26            [12] 1130 	ldhl	sp,	#38
    00000551 5D               [ 4] 1131 	ld	e, l
    00000552 54               [ 4] 1132 	ld	d, h
    00000553 F8 1B            [12] 1133 	ldhl	sp,	#27
    00000555 1A               [ 8] 1134 	ld	a, (de)
    00000556 13               [ 8] 1135 	inc	de
    00000557 96               [ 8] 1136 	sub	a, (hl)
    00000558 23               [ 8] 1137 	inc	hl
    00000559 1A               [ 8] 1138 	ld	a, (de)
    0000055A 9E               [ 8] 1139 	sbc	a, (hl)
    0000055B 30 0E            [12] 1140 	jr	NC, 00232$
    0000055D F8 21            [12] 1141 	ldhl	sp,	#33
    0000055F 5D               [ 4] 1142 	ld	e, l
    00000560 54               [ 4] 1143 	ld	d, h
    00000561 F8 19            [12] 1144 	ldhl	sp,	#25
    00000563 1A               [ 8] 1145 	ld	a, (de)
    00000564 13               [ 8] 1146 	inc	de
    00000565 96               [ 8] 1147 	sub	a, (hl)
    00000566 23               [ 8] 1148 	inc	hl
    00000567 1A               [ 8] 1149 	ld	a, (de)
    00000568 9E               [ 8] 1150 	sbc	a, (hl)
    00000569 38 06            [12] 1151 	jr	C, 00233$
    0000056B                       1152 00232$:
    0000056B F8 29            [12] 1153 	ldhl	sp,	#41
    0000056D 36 07            [12] 1154 	ld	(hl), #0x07
    0000056F 18 29            [12] 1155 	jr	00235$
    00000571                       1156 00233$:
    00000571 F8 1B            [12] 1157 	ldhl	sp,	#27
    00000573 2A               [ 8] 1158 	ld	a, (hl+)
    00000574 4F               [ 4] 1159 	ld	c, a
    00000575 46               [ 8] 1160 	ld	b, (hl)
    00000576 F8 21            [12] 1161 	ldhl	sp,	#33
    00000578 2A               [ 8] 1162 	ld	a, (hl+)
    00000579 5F               [ 4] 1163 	ld	e, a
    0000057A 56               [ 8] 1164 	ld	d, (hl)
    0000057B CDr00r00         [24] 1165 	call	__mulint
    0000057E F8 26            [12] 1166 	ldhl	sp,	#38
    00000580 2A               [ 8] 1167 	ld	a,	(hl+)
    00000581 66               [ 8] 1168 	ld	h, (hl)
    00000582 6F               [ 4] 1169 	ld	l, a
    00000583 09               [ 8] 1170 	add	hl, bc
    00000584 4D               [ 4] 1171 	ld	c, l
    00000585 44               [ 4] 1172 	ld	b, h
    00000586 F8 1D            [12] 1173 	ldhl	sp,	#29
    00000588 2A               [ 8] 1174 	ld	a,	(hl+)
    00000589 66               [ 8] 1175 	ld	h, (hl)
    0000058A 6F               [ 4] 1176 	ld	l, a
    0000058B 09               [ 8] 1177 	add	hl, bc
    0000058C 4D               [ 4] 1178 	ld	c, l
    0000058D 44               [ 4] 1179 	ld	b, h
    0000058E 0A               [ 8] 1180 	ld	a, (bc)
    0000058F 4F               [ 4] 1181 	ld	c, a
    00000590 21r00r00         [12] 1182 	ld	hl, #_famidash_metatile_collision
    00000593 06 00            [ 8] 1183 	ld	b, #0x00
    00000595 09               [ 8] 1184 	add	hl, bc
    00000596 7E               [ 8] 1185 	ld	a, (hl)
    00000597 F8 29            [12] 1186 	ldhl	sp,	#41
    00000599 77               [ 8] 1187 	ld	(hl), a
    0000059A                       1188 00235$:
                                   1189 ;src/player.c:66: if (IS_SOLID(hl) || IS_SOLID(hr)) {
    0000059A F8 28            [12] 1190 	ldhl	sp,	#40
    0000059C 7E               [ 8] 1191 	ld	a, (hl)
    0000059D D6 07            [ 8] 1192 	sub	a, #0x07
    0000059F 28 31            [12] 1193 	jr	Z, 00134$
    000005A1 F8 28            [12] 1194 	ldhl	sp,	#40
    000005A3 7E               [ 8] 1195 	ld	a, (hl)
    000005A4 D6 09            [ 8] 1196 	sub	a, #0x09
    000005A6 28 2A            [12] 1197 	jr	Z, 00134$
    000005A8 F8 28            [12] 1198 	ldhl	sp,	#40
    000005AA 7E               [ 8] 1199 	ld	a, (hl)
    000005AB D6 05            [ 8] 1200 	sub	a, #0x05
    000005AD 28 23            [12] 1201 	jr	Z, 00134$
    000005AF F8 28            [12] 1202 	ldhl	sp,	#40
    000005B1 7E               [ 8] 1203 	ld	a, (hl)
    000005B2 D6 06            [ 8] 1204 	sub	a, #0x06
    000005B4 28 1C            [12] 1205 	jr	Z, 00134$
    000005B6 F8 29            [12] 1206 	ldhl	sp,	#41
    000005B8 7E               [ 8] 1207 	ld	a, (hl)
    000005B9 D6 07            [ 8] 1208 	sub	a, #0x07
    000005BB 28 15            [12] 1209 	jr	Z, 00134$
    000005BD F8 29            [12] 1210 	ldhl	sp,	#41
    000005BF 7E               [ 8] 1211 	ld	a, (hl)
    000005C0 D6 09            [ 8] 1212 	sub	a, #0x09
    000005C2 28 0E            [12] 1213 	jr	Z, 00134$
    000005C4 F8 29            [12] 1214 	ldhl	sp,	#41
    000005C6 7E               [ 8] 1215 	ld	a, (hl)
    000005C7 D6 05            [ 8] 1216 	sub	a, #0x05
    000005C9 28 07            [12] 1217 	jr	Z, 00134$
    000005CB F8 29            [12] 1218 	ldhl	sp,	#41
    000005CD 7E               [ 8] 1219 	ld	a, (hl)
    000005CE D6 06            [ 8] 1220 	sub	a, #0x06
    000005D0 20 2B            [12] 1221 	jr	NZ, 00135$
    000005D2                       1222 00134$:
                                   1223 ;src/player.c:67: if (p->gravity_flipped) {
    000005D2 F8 12            [12] 1224 	ldhl	sp,	#18
    000005D4 7E               [ 8] 1225 	ld	a, (hl)
    000005D5 B7               [ 4] 1226 	or	a, a
    000005D6 28 0E            [12] 1227 	jr	Z, 00123$
                                   1228 ;src/player.c:68: p->world_y = ((ny + PLAYER_SIZE) & ~15) - PLAYER_SIZE - 1;
    000005D8 F8 0D            [12] 1229 	ldhl	sp,	#13
    000005DA 2A               [ 8] 1230 	ld	a, (hl+)
    000005DB 5F               [ 4] 1231 	ld	e, a
    000005DC 56               [ 8] 1232 	ld	d, (hl)
    000005DD F8 23            [12] 1233 	ldhl	sp,	#35
    000005DF 2A               [ 8] 1234 	ld	a, (hl+)
    000005E0 12               [ 8] 1235 	ld	(de), a
    000005E1 13               [ 8] 1236 	inc	de
    000005E2 7E               [ 8] 1237 	ld	a, (hl)
    000005E3 12               [ 8] 1238 	ld	(de), a
    000005E4 18 0C            [12] 1239 	jr	00124$
    000005E6                       1240 00123$:
                                   1241 ;src/player.c:70: p->world_y = ((ny >> 4) + 1) << 4;
    000005E6 F8 0D            [12] 1242 	ldhl	sp,	#13
    000005E8 2A               [ 8] 1243 	ld	a, (hl+)
    000005E9 5F               [ 4] 1244 	ld	e, a
    000005EA 56               [ 8] 1245 	ld	d, (hl)
    000005EB F8 15            [12] 1246 	ldhl	sp,	#21
    000005ED 2A               [ 8] 1247 	ld	a, (hl+)
    000005EE 12               [ 8] 1248 	ld	(de), a
    000005EF 13               [ 8] 1249 	inc	de
    000005F0 7E               [ 8] 1250 	ld	a, (hl)
    000005F1 12               [ 8] 1251 	ld	(de), a
    000005F2                       1252 00124$:
                                   1253 ;src/player.c:72: p->vel_y = 0;
    000005F2 F8 09            [12] 1254 	ldhl	sp,	#9
    000005F4 2A               [ 8] 1255 	ld	a, (hl+)
    000005F5 66               [ 8] 1256 	ld	h, (hl)
    000005F6 6F               [ 4] 1257 	ld	l, a
    000005F7 AF               [ 4] 1258 	xor	a, a
    000005F8 22               [ 8] 1259 	ld	(hl+), a
    000005F9 77               [ 8] 1260 	ld	(hl), a
    000005FA C3rD6r07         [16] 1261 	jp	00146$
    000005FD                       1262 00135$:
                                   1263 ;src/player.c:74: p->world_y = ny;
    000005FD F8 0D            [12] 1264 	ldhl	sp,	#13
    000005FF 2A               [ 8] 1265 	ld	a, (hl+)
    00000600 5F               [ 4] 1266 	ld	e, a
    00000601 2A               [ 8] 1267 	ld	a, (hl+)
    00000602 23               [ 8] 1268 	inc	hl
    00000603 57               [ 4] 1269 	ld	d, a
    00000604 2A               [ 8] 1270 	ld	a, (hl+)
    00000605 12               [ 8] 1271 	ld	(de), a
    00000606 13               [ 8] 1272 	inc	de
    00000607 7E               [ 8] 1273 	ld	a, (hl)
    00000608 12               [ 8] 1274 	ld	(de), a
                                   1275 ;src/player.c:77: int16_t sticky_y = (p->gravity_flipped) ? ny - 1 : ny + PLAYER_SIZE + 1;
    00000609 F8 07            [12] 1276 	ldhl	sp,#7
    0000060B 2A               [ 8] 1277 	ld	a, (hl+)
    0000060C 5F               [ 4] 1278 	ld	e, a
    0000060D 56               [ 8] 1279 	ld	d, (hl)
    0000060E 1A               [ 8] 1280 	ld	a, (de)
    0000060F B7               [ 4] 1281 	or	a, a
    00000610 28 13            [12] 1282 	jr	Z, 00283$
    00000612 F8 13            [12] 1283 	ldhl	sp,#19
    00000614 2A               [ 8] 1284 	ld	a, (hl+)
    00000615 5F               [ 4] 1285 	ld	e, a
    00000616 56               [ 8] 1286 	ld	d, (hl)
    00000617 21 01 00         [12] 1287 	ld	hl, #0x0001
    0000061A 7B               [ 4] 1288 	ld	a, e
    0000061B 95               [ 4] 1289 	sub	a, l
    0000061C 5F               [ 4] 1290 	ld	e, a
    0000061D 7A               [ 4] 1291 	ld	a, d
    0000061E 9C               [ 4] 1292 	sbc	a, h
    0000061F F8 29            [12] 1293 	ldhl	sp,	#41
    00000621 32               [ 8] 1294 	ld	(hl-), a
    00000622 73               [ 8] 1295 	ld	(hl), e
    00000623 18 13            [12] 1296 	jr	00284$
    00000625                       1297 00283$:
    00000625 F8 13            [12] 1298 	ldhl	sp,#19
    00000627 2A               [ 8] 1299 	ld	a, (hl+)
    00000628 5F               [ 4] 1300 	ld	e, a
    00000629 56               [ 8] 1301 	ld	d, (hl)
    0000062A 21 10 00         [12] 1302 	ld	hl, #0x0010
    0000062D 19               [ 8] 1303 	add	hl, de
    0000062E E5               [16] 1304 	push	hl
    0000062F 7D               [ 4] 1305 	ld	a, l
    00000630 F8 2A            [12] 1306 	ldhl	sp,	#42
    00000632 77               [ 8] 1307 	ld	(hl), a
    00000633 E1               [12] 1308 	pop	hl
    00000634 7C               [ 4] 1309 	ld	a, h
    00000635 F8 29            [12] 1310 	ldhl	sp,	#41
    00000637 77               [ 8] 1311 	ld	(hl), a
    00000638                       1312 00284$:
    00000638 F8 28            [12] 1313 	ldhl	sp,	#40
    0000063A 2A               [ 8] 1314 	ld	a, (hl+)
    0000063B 4F               [ 4] 1315 	ld	c, a
    0000063C 46               [ 8] 1316 	ld	b, (hl)
                                   1317 ;src/player.c:78: uint8_t gl = col_at(p->world_x + 2, sticky_y, map, map_w, map_h);
    0000063D F8 1F            [12] 1318 	ldhl	sp,#31
    0000063F 2A               [ 8] 1319 	ld	a, (hl+)
    00000640 5F               [ 4] 1320 	ld	e, a
    00000641 56               [ 8] 1321 	ld	d, (hl)
    00000642 1A               [ 8] 1322 	ld	a, (de)
    00000643 F8 28            [12] 1323 	ldhl	sp,	#40
    00000645 22               [ 8] 1324 	ld	(hl+), a
    00000646 13               [ 8] 1325 	inc	de
    00000647 1A               [ 8] 1326 	ld	a, (de)
    00000648 32               [ 8] 1327 	ld	(hl-), a
    00000649 7E               [ 8] 1328 	ld	a, (hl)
    0000064A F8 21            [12] 1329 	ldhl	sp,	#33
    0000064C 77               [ 8] 1330 	ld	(hl), a
    0000064D F8 29            [12] 1331 	ldhl	sp,	#41
    0000064F 7E               [ 8] 1332 	ld	a, (hl)
    00000650 F8 22            [12] 1333 	ldhl	sp,	#34
    00000652 32               [ 8] 1334 	ld	(hl-), a
    00000653 2A               [ 8] 1335 	ld	a, (hl+)
    00000654 5F               [ 4] 1336 	ld	e, a
    00000655 56               [ 8] 1337 	ld	d, (hl)
    00000656 13               [ 8] 1338 	inc	de
    00000657 13               [ 8] 1339 	inc	de
    00000658 F8 28            [12] 1340 	ldhl	sp,	#40
    0000065A 7B               [ 4] 1341 	ld	a, e
    0000065B 22               [ 8] 1342 	ld	(hl+), a
    0000065C 72               [ 8] 1343 	ld	(hl), d
    0000065D 78               [ 4] 1344 	ld	a, b
    0000065E 07               [ 4] 1345 	rlca
    0000065F E6 01            [ 8] 1346 	and	a,#0x01
    00000661 F8 23            [12] 1347 	ldhl	sp,	#35
    00000663 77               [ 8] 1348 	ld	(hl), a
                                   1349 ;include/collision.h:53: uint16_t my = (uint16_t)world_py >> 4;
    00000664 F8 24            [12] 1350 	ldhl	sp,	#36
    00000666 79               [ 4] 1351 	ld	a, c
    00000667 22               [ 8] 1352 	ld	(hl+), a
    00000668 70               [ 8] 1353 	ld	(hl), b
    00000669 CB 3E            [16] 1354 	srl	(hl)
    0000066B 2B               [ 8] 1355 	dec	hl
    0000066C CB 1E            [16] 1356 	rr	(hl)
    0000066E 23               [ 8] 1357 	inc	hl
    0000066F CB 3E            [16] 1358 	srl	(hl)
    00000671 2B               [ 8] 1359 	dec	hl
    00000672 CB 1E            [16] 1360 	rr	(hl)
    00000674 23               [ 8] 1361 	inc	hl
    00000675 CB 3E            [16] 1362 	srl	(hl)
    00000677 2B               [ 8] 1363 	dec	hl
    00000678 CB 1E            [16] 1364 	rr	(hl)
    0000067A 23               [ 8] 1365 	inc	hl
    0000067B CB 3E            [16] 1366 	srl	(hl)
    0000067D 2B               [ 8] 1367 	dec	hl
    0000067E CB 1E            [16] 1368 	rr	(hl)
                                   1369 ;src/player.c:78: uint8_t gl = col_at(p->world_x + 2, sticky_y, map, map_w, map_h);
    00000680 2B               [ 8] 1370 	dec	hl
    00000681 7E               [ 8] 1371 	ld	a, (hl)
    00000682 B7               [ 4] 1372 	or	a, a
    00000683 28 06            [12] 1373 	jr	Z, 00237$
    00000685 F8 29            [12] 1374 	ldhl	sp,	#41
    00000687 36 00            [12] 1375 	ld	(hl), #0x00
    00000689 18 78            [12] 1376 	jr	00242$
    0000068B                       1377 00237$:
                                   1378 ;include/collision.h:52: uint16_t mx = world_px >> 4;
    0000068B F8 28            [12] 1379 	ldhl	sp,	#40
    0000068D 3A               [ 8] 1380 	ld	a, (hl-)
    0000068E 2B               [ 8] 1381 	dec	hl
    0000068F 77               [ 8] 1382 	ld	(hl), a
    00000690 F8 29            [12] 1383 	ldhl	sp,	#41
    00000692 3A               [ 8] 1384 	ld	a, (hl-)
    00000693 2B               [ 8] 1385 	dec	hl
    00000694 77               [ 8] 1386 	ld	(hl), a
    00000695 CB 3E            [16] 1387 	srl	(hl)
    00000697 2B               [ 8] 1388 	dec	hl
    00000698 CB 1E            [16] 1389 	rr	(hl)
    0000069A 23               [ 8] 1390 	inc	hl
    0000069B CB 3E            [16] 1391 	srl	(hl)
    0000069D 2B               [ 8] 1392 	dec	hl
    0000069E CB 1E            [16] 1393 	rr	(hl)
    000006A0 23               [ 8] 1394 	inc	hl
    000006A1 CB 3E            [16] 1395 	srl	(hl)
    000006A3 2B               [ 8] 1396 	dec	hl
    000006A4 CB 1E            [16] 1397 	rr	(hl)
    000006A6 23               [ 8] 1398 	inc	hl
    000006A7 CB 3E            [16] 1399 	srl	(hl)
    000006A9 2B               [ 8] 1400 	dec	hl
    000006AA CB 1E            [16] 1401 	rr	(hl)
                                   1402 ;include/collision.h:53: uint16_t my = (uint16_t)world_py >> 4;
    000006AC 2B               [ 8] 1403 	dec	hl
    000006AD 2B               [ 8] 1404 	dec	hl
    000006AE 7E               [ 8] 1405 	ld	a, (hl)
    000006AF F8 28            [12] 1406 	ldhl	sp,	#40
    000006B1 77               [ 8] 1407 	ld	(hl), a
    000006B2 F8 25            [12] 1408 	ldhl	sp,	#37
    000006B4 7E               [ 8] 1409 	ld	a, (hl)
    000006B5 F8 29            [12] 1410 	ldhl	sp,	#41
    000006B7 77               [ 8] 1411 	ld	(hl), a
                                   1412 ;src/player.c:78: uint8_t gl = col_at(p->world_x + 2, sticky_y, map, map_w, map_h);
    000006B8 F8 26            [12] 1413 	ldhl	sp,	#38
    000006BA 5D               [ 4] 1414 	ld	e, l
    000006BB 54               [ 4] 1415 	ld	d, h
    000006BC F8 1B            [12] 1416 	ldhl	sp,	#27
    000006BE 1A               [ 8] 1417 	ld	a, (de)
    000006BF 13               [ 8] 1418 	inc	de
    000006C0 96               [ 8] 1419 	sub	a, (hl)
    000006C1 23               [ 8] 1420 	inc	hl
    000006C2 1A               [ 8] 1421 	ld	a, (de)
    000006C3 9E               [ 8] 1422 	sbc	a, (hl)
    000006C4 30 0E            [12] 1423 	jr	NC, 00239$
    000006C6 F8 28            [12] 1424 	ldhl	sp,	#40
    000006C8 5D               [ 4] 1425 	ld	e, l
    000006C9 54               [ 4] 1426 	ld	d, h
    000006CA F8 19            [12] 1427 	ldhl	sp,	#25
    000006CC 1A               [ 8] 1428 	ld	a, (de)
    000006CD 13               [ 8] 1429 	inc	de
    000006CE 96               [ 8] 1430 	sub	a, (hl)
    000006CF 23               [ 8] 1431 	inc	hl
    000006D0 1A               [ 8] 1432 	ld	a, (de)
    000006D1 9E               [ 8] 1433 	sbc	a, (hl)
    000006D2 38 06            [12] 1434 	jr	C, 00240$
    000006D4                       1435 00239$:
    000006D4 F8 29            [12] 1436 	ldhl	sp,	#41
    000006D6 36 07            [12] 1437 	ld	(hl), #0x07
    000006D8 18 29            [12] 1438 	jr	00242$
    000006DA                       1439 00240$:
    000006DA F8 1B            [12] 1440 	ldhl	sp,	#27
    000006DC 2A               [ 8] 1441 	ld	a, (hl+)
    000006DD 4F               [ 4] 1442 	ld	c, a
    000006DE 46               [ 8] 1443 	ld	b, (hl)
    000006DF F8 28            [12] 1444 	ldhl	sp,	#40
    000006E1 2A               [ 8] 1445 	ld	a, (hl+)
    000006E2 5F               [ 4] 1446 	ld	e, a
    000006E3 56               [ 8] 1447 	ld	d, (hl)
    000006E4 CDr00r00         [24] 1448 	call	__mulint
    000006E7 F8 26            [12] 1449 	ldhl	sp,	#38
    000006E9 2A               [ 8] 1450 	ld	a,	(hl+)
    000006EA 66               [ 8] 1451 	ld	h, (hl)
    000006EB 6F               [ 4] 1452 	ld	l, a
    000006EC 09               [ 8] 1453 	add	hl, bc
    000006ED 4D               [ 4] 1454 	ld	c, l
    000006EE 44               [ 4] 1455 	ld	b, h
    000006EF F8 1D            [12] 1456 	ldhl	sp,	#29
    000006F1 2A               [ 8] 1457 	ld	a,	(hl+)
    000006F2 66               [ 8] 1458 	ld	h, (hl)
    000006F3 6F               [ 4] 1459 	ld	l, a
    000006F4 09               [ 8] 1460 	add	hl, bc
    000006F5 4D               [ 4] 1461 	ld	c, l
    000006F6 44               [ 4] 1462 	ld	b, h
    000006F7 0A               [ 8] 1463 	ld	a, (bc)
    000006F8 4F               [ 4] 1464 	ld	c, a
    000006F9 21r00r00         [12] 1465 	ld	hl, #_famidash_metatile_collision
    000006FC 06 00            [ 8] 1466 	ld	b, #0x00
    000006FE 09               [ 8] 1467 	add	hl, bc
    000006FF 7E               [ 8] 1468 	ld	a, (hl)
    00000700 F8 29            [12] 1469 	ldhl	sp,	#41
    00000702 77               [ 8] 1470 	ld	(hl), a
    00000703                       1471 00242$:
                                   1472 ;src/player.c:79: uint8_t gr = col_at(p->world_x + PLAYER_SIZE - 2, sticky_y, map, map_w, map_h);
    00000703 F8 21            [12] 1473 	ldhl	sp,#33
    00000705 2A               [ 8] 1474 	ld	a, (hl+)
    00000706 5F               [ 4] 1475 	ld	e, a
    00000707 56               [ 8] 1476 	ld	d, (hl)
    00000708 21 0D 00         [12] 1477 	ld	hl, #0x000d
    0000070B 19               [ 8] 1478 	add	hl, de
    0000070C 4D               [ 4] 1479 	ld	c, l
    0000070D 7C               [ 4] 1480 	ld	a, h
    0000070E F8 27            [12] 1481 	ldhl	sp,	#39
    00000710 71               [ 8] 1482 	ld	(hl), c
    00000711 23               [ 8] 1483 	inc	hl
    00000712 77               [ 8] 1484 	ld	(hl), a
    00000713 F8 23            [12] 1485 	ldhl	sp,	#35
    00000715 7E               [ 8] 1486 	ld	a, (hl)
    00000716 B7               [ 4] 1487 	or	a, a
    00000717 28 06            [12] 1488 	jr	Z, 00244$
    00000719 F8 28            [12] 1489 	ldhl	sp,	#40
    0000071B 36 00            [12] 1490 	ld	(hl), #0x00
    0000071D 18 70            [12] 1491 	jr	00249$
    0000071F                       1492 00244$:
                                   1493 ;include/collision.h:52: uint16_t mx = world_px >> 4;
    0000071F F8 28            [12] 1494 	ldhl	sp,	#40
    00000721 CB 3E            [16] 1495 	srl	(hl)
    00000723 2B               [ 8] 1496 	dec	hl
    00000724 CB 1E            [16] 1497 	rr	(hl)
    00000726 23               [ 8] 1498 	inc	hl
    00000727 CB 3E            [16] 1499 	srl	(hl)
    00000729 2B               [ 8] 1500 	dec	hl
    0000072A CB 1E            [16] 1501 	rr	(hl)
    0000072C 23               [ 8] 1502 	inc	hl
    0000072D CB 3E            [16] 1503 	srl	(hl)
    0000072F 2B               [ 8] 1504 	dec	hl
    00000730 CB 1E            [16] 1505 	rr	(hl)
    00000732 23               [ 8] 1506 	inc	hl
    00000733 CB 3E            [16] 1507 	srl	(hl)
    00000735 2B               [ 8] 1508 	dec	hl
    00000736 CB 1E            [16] 1509 	rr	(hl)
                                   1510 ;include/collision.h:53: uint16_t my = (uint16_t)world_py >> 4;
    00000738 F8 24            [12] 1511 	ldhl	sp,	#36
    0000073A 7E               [ 8] 1512 	ld	a, (hl)
    0000073B F8 21            [12] 1513 	ldhl	sp,	#33
    0000073D 77               [ 8] 1514 	ld	(hl), a
    0000073E F8 25            [12] 1515 	ldhl	sp,	#37
    00000740 7E               [ 8] 1516 	ld	a, (hl)
    00000741 F8 22            [12] 1517 	ldhl	sp,	#34
    00000743 77               [ 8] 1518 	ld	(hl), a
                                   1519 ;src/player.c:79: uint8_t gr = col_at(p->world_x + PLAYER_SIZE - 2, sticky_y, map, map_w, map_h);
    00000744 F8 27            [12] 1520 	ldhl	sp,	#39
    00000746 5D               [ 4] 1521 	ld	e, l
    00000747 54               [ 4] 1522 	ld	d, h
    00000748 F8 1B            [12] 1523 	ldhl	sp,	#27
    0000074A 1A               [ 8] 1524 	ld	a, (de)
    0000074B 13               [ 8] 1525 	inc	de
    0000074C 96               [ 8] 1526 	sub	a, (hl)
    0000074D 23               [ 8] 1527 	inc	hl
    0000074E 1A               [ 8] 1528 	ld	a, (de)
    0000074F 9E               [ 8] 1529 	sbc	a, (hl)
    00000750 30 0E            [12] 1530 	jr	NC, 00246$
    00000752 F8 21            [12] 1531 	ldhl	sp,	#33
    00000754 5D               [ 4] 1532 	ld	e, l
    00000755 54               [ 4] 1533 	ld	d, h
    00000756 F8 19            [12] 1534 	ldhl	sp,	#25
    00000758 1A               [ 8] 1535 	ld	a, (de)
    00000759 13               [ 8] 1536 	inc	de
    0000075A 96               [ 8] 1537 	sub	a, (hl)
    0000075B 23               [ 8] 1538 	inc	hl
    0000075C 1A               [ 8] 1539 	ld	a, (de)
    0000075D 9E               [ 8] 1540 	sbc	a, (hl)
    0000075E 38 06            [12] 1541 	jr	C, 00247$
    00000760                       1542 00246$:
    00000760 F8 28            [12] 1543 	ldhl	sp,	#40
    00000762 36 07            [12] 1544 	ld	(hl), #0x07
    00000764 18 29            [12] 1545 	jr	00249$
    00000766                       1546 00247$:
    00000766 F8 1B            [12] 1547 	ldhl	sp,	#27
    00000768 2A               [ 8] 1548 	ld	a, (hl+)
    00000769 4F               [ 4] 1549 	ld	c, a
    0000076A 46               [ 8] 1550 	ld	b, (hl)
    0000076B F8 21            [12] 1551 	ldhl	sp,	#33
    0000076D 2A               [ 8] 1552 	ld	a, (hl+)
    0000076E 5F               [ 4] 1553 	ld	e, a
    0000076F 56               [ 8] 1554 	ld	d, (hl)
    00000770 CDr00r00         [24] 1555 	call	__mulint
    00000773 F8 27            [12] 1556 	ldhl	sp,	#39
    00000775 2A               [ 8] 1557 	ld	a,	(hl+)
    00000776 66               [ 8] 1558 	ld	h, (hl)
    00000777 6F               [ 4] 1559 	ld	l, a
    00000778 09               [ 8] 1560 	add	hl, bc
    00000779 4D               [ 4] 1561 	ld	c, l
    0000077A 44               [ 4] 1562 	ld	b, h
    0000077B F8 1D            [12] 1563 	ldhl	sp,	#29
    0000077D 2A               [ 8] 1564 	ld	a,	(hl+)
    0000077E 66               [ 8] 1565 	ld	h, (hl)
    0000077F 6F               [ 4] 1566 	ld	l, a
    00000780 09               [ 8] 1567 	add	hl, bc
    00000781 4D               [ 4] 1568 	ld	c, l
    00000782 44               [ 4] 1569 	ld	b, h
    00000783 0A               [ 8] 1570 	ld	a, (bc)
    00000784 4F               [ 4] 1571 	ld	c, a
    00000785 21r00r00         [12] 1572 	ld	hl, #_famidash_metatile_collision
    00000788 06 00            [ 8] 1573 	ld	b, #0x00
    0000078A 09               [ 8] 1574 	add	hl, bc
    0000078B 7E               [ 8] 1575 	ld	a, (hl)
    0000078C F8 28            [12] 1576 	ldhl	sp,	#40
    0000078E 77               [ 8] 1577 	ld	(hl), a
    0000078F                       1578 00249$:
                                   1579 ;src/player.c:80: if (IS_SOLID(gl) || IS_SOLID(gr)) {
    0000078F F8 29            [12] 1580 	ldhl	sp,	#41
    00000791 7E               [ 8] 1581 	ld	a, (hl)
    00000792 D6 07            [ 8] 1582 	sub	a, #0x07
    00000794 28 31            [12] 1583 	jr	Z, 00125$
    00000796 F8 29            [12] 1584 	ldhl	sp,	#41
    00000798 7E               [ 8] 1585 	ld	a, (hl)
    00000799 D6 09            [ 8] 1586 	sub	a, #0x09
    0000079B 28 2A            [12] 1587 	jr	Z, 00125$
    0000079D F8 29            [12] 1588 	ldhl	sp,	#41
    0000079F 7E               [ 8] 1589 	ld	a, (hl)
    000007A0 D6 05            [ 8] 1590 	sub	a, #0x05
    000007A2 28 23            [12] 1591 	jr	Z, 00125$
    000007A4 F8 29            [12] 1592 	ldhl	sp,	#41
    000007A6 7E               [ 8] 1593 	ld	a, (hl)
    000007A7 D6 06            [ 8] 1594 	sub	a, #0x06
    000007A9 28 1C            [12] 1595 	jr	Z, 00125$
    000007AB F8 28            [12] 1596 	ldhl	sp,	#40
    000007AD 7E               [ 8] 1597 	ld	a, (hl)
    000007AE D6 07            [ 8] 1598 	sub	a, #0x07
    000007B0 28 15            [12] 1599 	jr	Z, 00125$
    000007B2 F8 28            [12] 1600 	ldhl	sp,	#40
    000007B4 7E               [ 8] 1601 	ld	a, (hl)
    000007B5 D6 09            [ 8] 1602 	sub	a, #0x09
    000007B7 28 0E            [12] 1603 	jr	Z, 00125$
    000007B9 F8 28            [12] 1604 	ldhl	sp,	#40
    000007BB 7E               [ 8] 1605 	ld	a, (hl)
    000007BC D6 05            [ 8] 1606 	sub	a, #0x05
    000007BE 28 07            [12] 1607 	jr	Z, 00125$
    000007C0 F8 28            [12] 1608 	ldhl	sp,	#40
    000007C2 7E               [ 8] 1609 	ld	a, (hl)
    000007C3 D6 06            [ 8] 1610 	sub	a, #0x06
    000007C5 20 0F            [12] 1611 	jr	NZ, 00146$
    000007C7                       1612 00125$:
                                   1613 ;src/player.c:81: p->on_ground = 1;
    000007C7 F8 05            [12] 1614 	ldhl	sp,	#5
    000007C9 2A               [ 8] 1615 	ld	a, (hl+)
    000007CA 66               [ 8] 1616 	ld	h, (hl)
    000007CB 6F               [ 4] 1617 	ld	l, a
    000007CC 36 01            [12] 1618 	ld	(hl), #0x01
                                   1619 ;src/player.c:82: p->vel_y = 0;
    000007CE F8 09            [12] 1620 	ldhl	sp,	#9
    000007D0 2A               [ 8] 1621 	ld	a, (hl+)
    000007D1 66               [ 8] 1622 	ld	h, (hl)
    000007D2 6F               [ 4] 1623 	ld	l, a
    000007D3 AF               [ 4] 1624 	xor	a, a
    000007D4 22               [ 8] 1625 	ld	(hl+), a
    000007D5 77               [ 8] 1626 	ld	(hl), a
    000007D6                       1627 00146$:
                                   1628 ;src/player.c:40: int16_t ny = p->world_y + pixels;
    000007D6 F8 0D            [12] 1629 	ldhl	sp,#13
    000007D8 2A               [ 8] 1630 	ld	a, (hl+)
    000007D9 5F               [ 4] 1631 	ld	e, a
    000007DA 56               [ 8] 1632 	ld	d, (hl)
    000007DB 1A               [ 8] 1633 	ld	a, (de)
    000007DC 4F               [ 4] 1634 	ld	c, a
    000007DD 13               [ 8] 1635 	inc	de
    000007DE 1A               [ 8] 1636 	ld	a, (de)
                                   1637 ;src/player.c:88: uint8_t head = col_at(p->world_x + PLAYER_SIZE, p->world_y + 4, map, map_w, map_h);
    000007DF F8 28            [12] 1638 	ldhl	sp,	#40
    000007E1 71               [ 8] 1639 	ld	(hl), c
    000007E2 23               [ 8] 1640 	inc	hl
    000007E3 32               [ 8] 1641 	ld	(hl-), a
    000007E4 2A               [ 8] 1642 	ld	a, (hl+)
    000007E5 5F               [ 4] 1643 	ld	e, a
    000007E6 56               [ 8] 1644 	ld	d, (hl)
    000007E7 21 04 00         [12] 1645 	ld	hl, #0x0004
    000007EA 19               [ 8] 1646 	add	hl, de
    000007EB 4D               [ 4] 1647 	ld	c, l
    000007EC 7C               [ 4] 1648 	ld	a, h
    000007ED F8 24            [12] 1649 	ldhl	sp,	#36
    000007EF 71               [ 8] 1650 	ld	(hl), c
    000007F0 23               [ 8] 1651 	inc	hl
    000007F1 77               [ 8] 1652 	ld	(hl), a
    000007F2 F8 1F            [12] 1653 	ldhl	sp,#31
    000007F4 2A               [ 8] 1654 	ld	a, (hl+)
    000007F5 5F               [ 4] 1655 	ld	e, a
    000007F6 2A               [ 8] 1656 	ld	a, (hl+)
    000007F7 57               [ 4] 1657 	ld	d, a
    000007F8 1A               [ 8] 1658 	ld	a, (de)
    000007F9 4F               [ 4] 1659 	ld	c, a
    000007FA 13               [ 8] 1660 	inc	de
    000007FB 1A               [ 8] 1661 	ld	a, (de)
    000007FC 71               [ 8] 1662 	ld	(hl), c
    000007FD 23               [ 8] 1663 	inc	hl
    000007FE 32               [ 8] 1664 	ld	(hl-), a
    000007FF 2A               [ 8] 1665 	ld	a, (hl+)
    00000800 5F               [ 4] 1666 	ld	e, a
    00000801 56               [ 8] 1667 	ld	d, (hl)
    00000802 21 0F 00         [12] 1668 	ld	hl, #0x000f
    00000805 19               [ 8] 1669 	add	hl, de
    00000806 4D               [ 4] 1670 	ld	c, l
    00000807 7C               [ 4] 1671 	ld	a, h
    00000808 F8 26            [12] 1672 	ldhl	sp,	#38
    0000080A 71               [ 8] 1673 	ld	(hl), c
    0000080B 23               [ 8] 1674 	inc	hl
    0000080C 32               [ 8] 1675 	ld	(hl-), a
    0000080D 7E               [ 8] 1676 	ld	a, (hl)
    0000080E F8 1F            [12] 1677 	ldhl	sp,	#31
    00000810 77               [ 8] 1678 	ld	(hl), a
    00000811 F8 27            [12] 1679 	ldhl	sp,	#39
    00000813 7E               [ 8] 1680 	ld	a, (hl)
    00000814 F8 20            [12] 1681 	ldhl	sp,	#32
    00000816 77               [ 8] 1682 	ld	(hl), a
    00000817 F8 24            [12] 1683 	ldhl	sp,	#36
    00000819 2A               [ 8] 1684 	ld	a, (hl+)
    0000081A CB 7E            [12] 1685 	bit	7, (hl)
    0000081C 28 04            [12] 1686 	jr	Z, 00251$
    0000081E 0E 00            [ 8] 1687 	ld	c, #0x00
    00000820 18 6C            [12] 1688 	jr	00256$
    00000822                       1689 00251$:
                                   1690 ;include/collision.h:52: uint16_t mx = world_px >> 4;
    00000822 F8 20            [12] 1691 	ldhl	sp,	#32
    00000824 CB 3E            [16] 1692 	srl	(hl)
    00000826 2B               [ 8] 1693 	dec	hl
    00000827 CB 1E            [16] 1694 	rr	(hl)
    00000829 23               [ 8] 1695 	inc	hl
    0000082A CB 3E            [16] 1696 	srl	(hl)
    0000082C 2B               [ 8] 1697 	dec	hl
    0000082D CB 1E            [16] 1698 	rr	(hl)
    0000082F 23               [ 8] 1699 	inc	hl
    00000830 CB 3E            [16] 1700 	srl	(hl)
    00000832 2B               [ 8] 1701 	dec	hl
    00000833 CB 1E            [16] 1702 	rr	(hl)
    00000835 23               [ 8] 1703 	inc	hl
    00000836 CB 3E            [16] 1704 	srl	(hl)
    00000838 2B               [ 8] 1705 	dec	hl
    00000839 CB 1E            [16] 1706 	rr	(hl)
                                   1707 ;include/collision.h:53: uint16_t my = (uint16_t)world_py >> 4;
    0000083B F8 24            [12] 1708 	ldhl	sp,	#36
    0000083D 2A               [ 8] 1709 	ld	a, (hl+)
    0000083E 5F               [ 4] 1710 	ld	e, a
    0000083F 56               [ 8] 1711 	ld	d, (hl)
    00000840 CB 3A            [ 8] 1712 	srl	d
    00000842 CB 1B            [ 8] 1713 	rr	e
    00000844 CB 3A            [ 8] 1714 	srl	d
    00000846 CB 1B            [ 8] 1715 	rr	e
    00000848 CB 3A            [ 8] 1716 	srl	d
    0000084A CB 1B            [ 8] 1717 	rr	e
    0000084C CB 3A            [ 8] 1718 	srl	d
    0000084E CB 1B            [ 8] 1719 	rr	e
                                   1720 ;src/player.c:88: uint8_t head = col_at(p->world_x + PLAYER_SIZE, p->world_y + 4, map, map_w, map_h);
    00000850 D5               [16] 1721 	push	de
    00000851 F8 21            [12] 1722 	ldhl	sp,	#33
    00000853 5D               [ 4] 1723 	ld	e, l
    00000854 54               [ 4] 1724 	ld	d, h
    00000855 F8 1D            [12] 1725 	ldhl	sp,	#29
    00000857 1A               [ 8] 1726 	ld	a, (de)
    00000858 13               [ 8] 1727 	inc	de
    00000859 96               [ 8] 1728 	sub	a, (hl)
    0000085A 23               [ 8] 1729 	inc	hl
    0000085B 1A               [ 8] 1730 	ld	a, (de)
    0000085C 9E               [ 8] 1731 	sbc	a, (hl)
    0000085D D1               [12] 1732 	pop	de
    0000085E 30 09            [12] 1733 	jr	NC, 00253$
    00000860 F8 19            [12] 1734 	ldhl	sp,	#25
    00000862 7B               [ 4] 1735 	ld	a, e
    00000863 96               [ 8] 1736 	sub	a, (hl)
    00000864 23               [ 8] 1737 	inc	hl
    00000865 7A               [ 4] 1738 	ld	a, d
    00000866 9E               [ 8] 1739 	sbc	a, (hl)
    00000867 38 04            [12] 1740 	jr	C, 00254$
    00000869                       1741 00253$:
    00000869 0E 07            [ 8] 1742 	ld	c, #0x07
    0000086B 18 21            [12] 1743 	jr	00256$
    0000086D                       1744 00254$:
    0000086D F8 1B            [12] 1745 	ldhl	sp,	#27
    0000086F 2A               [ 8] 1746 	ld	a, (hl+)
    00000870 4F               [ 4] 1747 	ld	c, a
    00000871 46               [ 8] 1748 	ld	b, (hl)
    00000872 CDr00r00         [24] 1749 	call	__mulint
    00000875 F8 1F            [12] 1750 	ldhl	sp,	#31
    00000877 2A               [ 8] 1751 	ld	a,	(hl+)
    00000878 66               [ 8] 1752 	ld	h, (hl)
    00000879 6F               [ 4] 1753 	ld	l, a
    0000087A 09               [ 8] 1754 	add	hl, bc
    0000087B 4D               [ 4] 1755 	ld	c, l
    0000087C 44               [ 4] 1756 	ld	b, h
    0000087D F8 1D            [12] 1757 	ldhl	sp,	#29
    0000087F 2A               [ 8] 1758 	ld	a,	(hl+)
    00000880 66               [ 8] 1759 	ld	h, (hl)
    00000881 6F               [ 4] 1760 	ld	l, a
    00000882 09               [ 8] 1761 	add	hl, bc
    00000883 4D               [ 4] 1762 	ld	c, l
    00000884 44               [ 4] 1763 	ld	b, h
    00000885 0A               [ 8] 1764 	ld	a, (bc)
    00000886 4F               [ 4] 1765 	ld	c, a
    00000887 21r00r00         [12] 1766 	ld	hl, #_famidash_metatile_collision
    0000088A 06 00            [ 8] 1767 	ld	b, #0x00
    0000088C 09               [ 8] 1768 	add	hl, bc
    0000088D 4E               [ 8] 1769 	ld	c, (hl)
    0000088E                       1770 00256$:
    0000088E F8 23            [12] 1771 	ldhl	sp,	#35
    00000890 71               [ 8] 1772 	ld	(hl), c
                                   1773 ;src/player.c:89: uint8_t foot = col_at(p->world_x + PLAYER_SIZE, p->world_y + PLAYER_SIZE - 4, map, map_w, map_h);
    00000891 F8 28            [12] 1774 	ldhl	sp,#40
    00000893 2A               [ 8] 1775 	ld	a, (hl+)
    00000894 5F               [ 4] 1776 	ld	e, a
    00000895 56               [ 8] 1777 	ld	d, (hl)
    00000896 21 0B 00         [12] 1778 	ld	hl, #0x000b
    00000899 19               [ 8] 1779 	add	hl, de
    0000089A 4D               [ 4] 1780 	ld	c, l
    0000089B 7C               [ 4] 1781 	ld	a, h
    0000089C F8 24            [12] 1782 	ldhl	sp,	#36
    0000089E 71               [ 8] 1783 	ld	(hl), c
    0000089F 23               [ 8] 1784 	inc	hl
    000008A0 32               [ 8] 1785 	ld	(hl-), a
    000008A1 2A               [ 8] 1786 	ld	a, (hl+)
    000008A2 CB 7E            [12] 1787 	bit	7, (hl)
    000008A4 28 07            [12] 1788 	jr	Z, 00258$
    000008A6 23               [ 8] 1789 	inc	hl
    000008A7 23               [ 8] 1790 	inc	hl
    000008A8 36 00            [12] 1791 	ld	(hl), #0x00
    000008AA C3r31r09         [16] 1792 	jp	00263$
    000008AD                       1793 00258$:
                                   1794 ;include/collision.h:52: uint16_t mx = world_px >> 4;
    000008AD F8 27            [12] 1795 	ldhl	sp,	#39
    000008AF CB 3E            [16] 1796 	srl	(hl)
    000008B1 2B               [ 8] 1797 	dec	hl
    000008B2 CB 1E            [16] 1798 	rr	(hl)
    000008B4 23               [ 8] 1799 	inc	hl
    000008B5 CB 3E            [16] 1800 	srl	(hl)
    000008B7 2B               [ 8] 1801 	dec	hl
    000008B8 CB 1E            [16] 1802 	rr	(hl)
    000008BA 23               [ 8] 1803 	inc	hl
    000008BB CB 3E            [16] 1804 	srl	(hl)
    000008BD 2B               [ 8] 1805 	dec	hl
    000008BE CB 1E            [16] 1806 	rr	(hl)
    000008C0 23               [ 8] 1807 	inc	hl
    000008C1 CB 3E            [16] 1808 	srl	(hl)
    000008C3 2B               [ 8] 1809 	dec	hl
    000008C4 CB 1E            [16] 1810 	rr	(hl)
                                   1811 ;include/collision.h:53: uint16_t my = (uint16_t)world_py >> 4;
    000008C6 2B               [ 8] 1812 	dec	hl
    000008C7 2B               [ 8] 1813 	dec	hl
    000008C8 2A               [ 8] 1814 	ld	a, (hl+)
    000008C9 4F               [ 4] 1815 	ld	c, a
    000008CA 3A               [ 8] 1816 	ld	a, (hl-)
    000008CB 47               [ 4] 1817 	ld	b, a
    000008CC 79               [ 4] 1818 	ld	a, c
    000008CD 22               [ 8] 1819 	ld	(hl+), a
    000008CE 70               [ 8] 1820 	ld	(hl), b
    000008CF CB 3E            [16] 1821 	srl	(hl)
    000008D1 2B               [ 8] 1822 	dec	hl
    000008D2 CB 1E            [16] 1823 	rr	(hl)
    000008D4 23               [ 8] 1824 	inc	hl
    000008D5 CB 3E            [16] 1825 	srl	(hl)
    000008D7 2B               [ 8] 1826 	dec	hl
    000008D8 CB 1E            [16] 1827 	rr	(hl)
    000008DA 23               [ 8] 1828 	inc	hl
    000008DB CB 3E            [16] 1829 	srl	(hl)
    000008DD 2B               [ 8] 1830 	dec	hl
    000008DE CB 1E            [16] 1831 	rr	(hl)
    000008E0 23               [ 8] 1832 	inc	hl
    000008E1 CB 3E            [16] 1833 	srl	(hl)
    000008E3 2B               [ 8] 1834 	dec	hl
    000008E4 CB 1E            [16] 1835 	rr	(hl)
                                   1836 ;src/player.c:89: uint8_t foot = col_at(p->world_x + PLAYER_SIZE, p->world_y + PLAYER_SIZE - 4, map, map_w, map_h);
    000008E6 F8 26            [12] 1837 	ldhl	sp,	#38
    000008E8 5D               [ 4] 1838 	ld	e, l
    000008E9 54               [ 4] 1839 	ld	d, h
    000008EA F8 1B            [12] 1840 	ldhl	sp,	#27
    000008EC 1A               [ 8] 1841 	ld	a, (de)
    000008ED 13               [ 8] 1842 	inc	de
    000008EE 96               [ 8] 1843 	sub	a, (hl)
    000008EF 23               [ 8] 1844 	inc	hl
    000008F0 1A               [ 8] 1845 	ld	a, (de)
    000008F1 9E               [ 8] 1846 	sbc	a, (hl)
    000008F2 30 0E            [12] 1847 	jr	NC, 00260$
    000008F4 F8 24            [12] 1848 	ldhl	sp,	#36
    000008F6 5D               [ 4] 1849 	ld	e, l
    000008F7 54               [ 4] 1850 	ld	d, h
    000008F8 F8 19            [12] 1851 	ldhl	sp,	#25
    000008FA 1A               [ 8] 1852 	ld	a, (de)
    000008FB 13               [ 8] 1853 	inc	de
    000008FC 96               [ 8] 1854 	sub	a, (hl)
    000008FD 23               [ 8] 1855 	inc	hl
    000008FE 1A               [ 8] 1856 	ld	a, (de)
    000008FF 9E               [ 8] 1857 	sbc	a, (hl)
    00000900 38 06            [12] 1858 	jr	C, 00261$
    00000902                       1859 00260$:
    00000902 F8 27            [12] 1860 	ldhl	sp,	#39
    00000904 36 07            [12] 1861 	ld	(hl), #0x07
    00000906 18 29            [12] 1862 	jr	00263$
    00000908                       1863 00261$:
    00000908 F8 1B            [12] 1864 	ldhl	sp,	#27
    0000090A 2A               [ 8] 1865 	ld	a, (hl+)
    0000090B 4F               [ 4] 1866 	ld	c, a
    0000090C 46               [ 8] 1867 	ld	b, (hl)
    0000090D F8 24            [12] 1868 	ldhl	sp,	#36
    0000090F 2A               [ 8] 1869 	ld	a, (hl+)
    00000910 5F               [ 4] 1870 	ld	e, a
    00000911 56               [ 8] 1871 	ld	d, (hl)
    00000912 CDr00r00         [24] 1872 	call	__mulint
    00000915 F8 26            [12] 1873 	ldhl	sp,	#38
    00000917 2A               [ 8] 1874 	ld	a,	(hl+)
    00000918 66               [ 8] 1875 	ld	h, (hl)
    00000919 6F               [ 4] 1876 	ld	l, a
    0000091A 09               [ 8] 1877 	add	hl, bc
    0000091B 4D               [ 4] 1878 	ld	c, l
    0000091C 44               [ 4] 1879 	ld	b, h
    0000091D F8 1D            [12] 1880 	ldhl	sp,	#29
    0000091F 2A               [ 8] 1881 	ld	a,	(hl+)
    00000920 66               [ 8] 1882 	ld	h, (hl)
    00000921 6F               [ 4] 1883 	ld	l, a
    00000922 09               [ 8] 1884 	add	hl, bc
    00000923 4D               [ 4] 1885 	ld	c, l
    00000924 44               [ 4] 1886 	ld	b, h
    00000925 0A               [ 8] 1887 	ld	a, (bc)
    00000926 4F               [ 4] 1888 	ld	c, a
    00000927 21r00r00         [12] 1889 	ld	hl, #_famidash_metatile_collision
    0000092A 06 00            [ 8] 1890 	ld	b, #0x00
    0000092C 09               [ 8] 1891 	add	hl, bc
    0000092D 7E               [ 8] 1892 	ld	a, (hl)
    0000092E F8 27            [12] 1893 	ldhl	sp,	#39
    00000930 77               [ 8] 1894 	ld	(hl), a
    00000931                       1895 00263$:
                                   1896 ;src/player.c:92: uint8_t mid = col_at(p->world_x + 8, p->world_y + 8, map, map_w, map_h);
    00000931 F8 28            [12] 1897 	ldhl	sp,#40
    00000933 2A               [ 8] 1898 	ld	a, (hl+)
    00000934 5F               [ 4] 1899 	ld	e, a
    00000935 56               [ 8] 1900 	ld	d, (hl)
    00000936 21 08 00         [12] 1901 	ld	hl, #0x0008
    00000939 19               [ 8] 1902 	add	hl, de
    0000093A 4D               [ 4] 1903 	ld	c, l
    0000093B 7C               [ 4] 1904 	ld	a, h
    0000093C F8 28            [12] 1905 	ldhl	sp,	#40
    0000093E 71               [ 8] 1906 	ld	(hl), c
    0000093F 23               [ 8] 1907 	inc	hl
    00000940 77               [ 8] 1908 	ld	(hl), a
    00000941 F8 21            [12] 1909 	ldhl	sp,#33
    00000943 2A               [ 8] 1910 	ld	a, (hl+)
    00000944 5F               [ 4] 1911 	ld	e, a
    00000945 56               [ 8] 1912 	ld	d, (hl)
    00000946 21 08 00         [12] 1913 	ld	hl, #0x0008
    00000949 19               [ 8] 1914 	add	hl, de
    0000094A 4D               [ 4] 1915 	ld	c, l
    0000094B 7C               [ 4] 1916 	ld	a, h
    0000094C F8 25            [12] 1917 	ldhl	sp,	#37
    0000094E 71               [ 8] 1918 	ld	(hl), c
    0000094F 23               [ 8] 1919 	inc	hl
    00000950 22               [ 8] 1920 	ld	(hl+), a
    00000951 23               [ 8] 1921 	inc	hl
    00000952 2A               [ 8] 1922 	ld	a, (hl+)
    00000953 4F               [ 4] 1923 	ld	c, a
    00000954 46               [ 8] 1924 	ld	b, (hl)
    00000955 CB 78            [ 8] 1925 	bit	7, b
    00000957 28 07            [12] 1926 	jr	Z, 00265$
    00000959 F8 25            [12] 1927 	ldhl	sp,	#37
    0000095B 36 00            [12] 1928 	ld	(hl), #0x00
    0000095D C3r04r0A         [16] 1929 	jp	00270$
    00000960                       1930 00265$:
                                   1931 ;include/collision.h:52: uint16_t mx = world_px >> 4;
    00000960 F8 26            [12] 1932 	ldhl	sp,	#38
    00000962 CB 3E            [16] 1933 	srl	(hl)
    00000964 2B               [ 8] 1934 	dec	hl
    00000965 CB 1E            [16] 1935 	rr	(hl)
    00000967 23               [ 8] 1936 	inc	hl
    00000968 CB 3E            [16] 1937 	srl	(hl)
    0000096A 2B               [ 8] 1938 	dec	hl
    0000096B CB 1E            [16] 1939 	rr	(hl)
    0000096D 23               [ 8] 1940 	inc	hl
    0000096E CB 3E            [16] 1941 	srl	(hl)
    00000970 2B               [ 8] 1942 	dec	hl
    00000971 CB 1E            [16] 1943 	rr	(hl)
    00000973 23               [ 8] 1944 	inc	hl
    00000974 CB 3E            [16] 1945 	srl	(hl)
    00000976 2B               [ 8] 1946 	dec	hl
    00000977 CB 1E            [16] 1947 	rr	(hl)
                                   1948 ;include/collision.h:53: uint16_t my = (uint16_t)world_py >> 4;
    00000979 F8 28            [12] 1949 	ldhl	sp,	#40
    0000097B 2A               [ 8] 1950 	ld	a, (hl+)
    0000097C 4F               [ 4] 1951 	ld	c, a
    0000097D 3A               [ 8] 1952 	ld	a, (hl-)
    0000097E 47               [ 4] 1953 	ld	b, a
    0000097F 79               [ 4] 1954 	ld	a, c
    00000980 22               [ 8] 1955 	ld	(hl+), a
    00000981 70               [ 8] 1956 	ld	(hl), b
    00000982 CB 3E            [16] 1957 	srl	(hl)
    00000984 2B               [ 8] 1958 	dec	hl
    00000985 CB 1E            [16] 1959 	rr	(hl)
    00000987 23               [ 8] 1960 	inc	hl
    00000988 CB 3E            [16] 1961 	srl	(hl)
    0000098A 2B               [ 8] 1962 	dec	hl
    0000098B CB 1E            [16] 1963 	rr	(hl)
    0000098D 23               [ 8] 1964 	inc	hl
    0000098E CB 3E            [16] 1965 	srl	(hl)
    00000990 2B               [ 8] 1966 	dec	hl
    00000991 CB 1E            [16] 1967 	rr	(hl)
    00000993 23               [ 8] 1968 	inc	hl
    00000994 CB 3E            [16] 1969 	srl	(hl)
    00000996 2B               [ 8] 1970 	dec	hl
    00000997 CB 1E            [16] 1971 	rr	(hl)
                                   1972 ;src/player.c:92: uint8_t mid = col_at(p->world_x + 8, p->world_y + 8, map, map_w, map_h);
    00000999 F8 25            [12] 1973 	ldhl	sp,	#37
    0000099B 5D               [ 4] 1974 	ld	e, l
    0000099C 54               [ 4] 1975 	ld	d, h
    0000099D F8 1B            [12] 1976 	ldhl	sp,	#27
    0000099F 1A               [ 8] 1977 	ld	a, (de)
    000009A0 13               [ 8] 1978 	inc	de
    000009A1 96               [ 8] 1979 	sub	a, (hl)
    000009A2 23               [ 8] 1980 	inc	hl
    000009A3 1A               [ 8] 1981 	ld	a, (de)
    000009A4 9E               [ 8] 1982 	sbc	a, (hl)
    000009A5 30 0E            [12] 1983 	jr	NC, 00267$
    000009A7 F8 28            [12] 1984 	ldhl	sp,	#40
    000009A9 5D               [ 4] 1985 	ld	e, l
    000009AA 54               [ 4] 1986 	ld	d, h
    000009AB F8 19            [12] 1987 	ldhl	sp,	#25
    000009AD 1A               [ 8] 1988 	ld	a, (de)
    000009AE 13               [ 8] 1989 	inc	de
    000009AF 96               [ 8] 1990 	sub	a, (hl)
    000009B0 23               [ 8] 1991 	inc	hl
    000009B1 1A               [ 8] 1992 	ld	a, (de)
    000009B2 9E               [ 8] 1993 	sbc	a, (hl)
    000009B3 38 06            [12] 1994 	jr	C, 00268$
    000009B5                       1995 00267$:
    000009B5 F8 25            [12] 1996 	ldhl	sp,	#37
    000009B7 36 07            [12] 1997 	ld	(hl), #0x07
    000009B9 18 49            [12] 1998 	jr	00270$
    000009BB                       1999 00268$:
    000009BB F8 1B            [12] 2000 	ldhl	sp,	#27
    000009BD 2A               [ 8] 2001 	ld	a, (hl+)
    000009BE 4F               [ 4] 2002 	ld	c, a
    000009BF 46               [ 8] 2003 	ld	b, (hl)
    000009C0 F8 28            [12] 2004 	ldhl	sp,	#40
    000009C2 2A               [ 8] 2005 	ld	a, (hl+)
    000009C3 5F               [ 4] 2006 	ld	e, a
    000009C4 56               [ 8] 2007 	ld	d, (hl)
    000009C5 CDr00r00         [24] 2008 	call	__mulint
    000009C8 F8 21            [12] 2009 	ldhl	sp,	#33
    000009CA 79               [ 4] 2010 	ld	a, c
    000009CB 22               [ 8] 2011 	ld	(hl+), a
    000009CC 70               [ 8] 2012 	ld	(hl), b
    000009CD F8 21            [12] 2013 	ldhl	sp,#33
    000009CF 2A               [ 8] 2014 	ld	a, (hl+)
    000009D0 5F               [ 4] 2015 	ld	e, a
    000009D1 56               [ 8] 2016 	ld	d, (hl)
    000009D2 F8 25            [12] 2017 	ldhl	sp,	#37
    000009D4 2A               [ 8] 2018 	ld	a,	(hl+)
    000009D5 66               [ 8] 2019 	ld	h, (hl)
    000009D6 6F               [ 4] 2020 	ld	l, a
    000009D7 19               [ 8] 2021 	add	hl, de
    000009D8 E5               [16] 2022 	push	hl
    000009D9 7D               [ 4] 2023 	ld	a, l
    000009DA F8 2A            [12] 2024 	ldhl	sp,	#42
    000009DC 77               [ 8] 2025 	ld	(hl), a
    000009DD E1               [12] 2026 	pop	hl
    000009DE 7C               [ 4] 2027 	ld	a, h
    000009DF F8 29            [12] 2028 	ldhl	sp,	#41
    000009E1 32               [ 8] 2029 	ld	(hl-), a
    000009E2 2A               [ 8] 2030 	ld	a, (hl+)
    000009E3 5F               [ 4] 2031 	ld	e, a
    000009E4 56               [ 8] 2032 	ld	d, (hl)
    000009E5 F8 1D            [12] 2033 	ldhl	sp,	#29
    000009E7 2A               [ 8] 2034 	ld	a,	(hl+)
    000009E8 66               [ 8] 2035 	ld	h, (hl)
    000009E9 6F               [ 4] 2036 	ld	l, a
    000009EA 19               [ 8] 2037 	add	hl, de
    000009EB E5               [16] 2038 	push	hl
    000009EC 7D               [ 4] 2039 	ld	a, l
    000009ED F8 27            [12] 2040 	ldhl	sp,	#39
    000009EF 77               [ 8] 2041 	ld	(hl), a
    000009F0 E1               [12] 2042 	pop	hl
    000009F1 7C               [ 4] 2043 	ld	a, h
    000009F2 F8 26            [12] 2044 	ldhl	sp,	#38
    000009F4 32               [ 8] 2045 	ld	(hl-), a
    000009F5 2A               [ 8] 2046 	ld	a, (hl+)
    000009F6 5F               [ 4] 2047 	ld	e, a
    000009F7 56               [ 8] 2048 	ld	d, (hl)
    000009F8 1A               [ 8] 2049 	ld	a, (de)
    000009F9 4F               [ 4] 2050 	ld	c, a
    000009FA 21r00r00         [12] 2051 	ld	hl, #_famidash_metatile_collision
    000009FD 06 00            [ 8] 2052 	ld	b, #0x00
    000009FF 09               [ 8] 2053 	add	hl, bc
    00000A00 7E               [ 8] 2054 	ld	a, (hl)
    00000A01 F8 25            [12] 2055 	ldhl	sp,	#37
    00000A03 77               [ 8] 2056 	ld	(hl), a
    00000A04                       2057 00270$:
    00000A04 F8 25            [12] 2058 	ldhl	sp,	#37
    00000A06 2A               [ 8] 2059 	ld	a, (hl+)
    00000A07 77               [ 8] 2060 	ld	(hl), a
                                   2061 ;src/player.c:93: if (IS_PAD(mid) || IS_PAD(head) || IS_PAD(foot)) {
    00000A08 F8 23            [12] 2062 	ldhl	sp,	#35
    00000A0A 7E               [ 8] 2063 	ld	a, (hl)
    00000A0B D6 0B            [ 8] 2064 	sub	a, #0x0b
    00000A0D 3E 01            [ 8] 2065 	ld	a, #0x01
    00000A0F 28 01            [12] 2066 	jr	Z, 01087$
    00000A11 AF               [ 4] 2067 	xor	a, a
    00000A12                       2068 01087$:
    00000A12 F8 28            [12] 2069 	ldhl	sp,	#40
    00000A14 77               [ 8] 2070 	ld	(hl), a
    00000A15 F8 23            [12] 2071 	ldhl	sp,	#35
    00000A17 7E               [ 8] 2072 	ld	a, (hl)
    00000A18 D6 0E            [ 8] 2073 	sub	a, #0x0e
    00000A1A 3E 01            [ 8] 2074 	ld	a, #0x01
    00000A1C 28 01            [12] 2075 	jr	Z, 01089$
    00000A1E AF               [ 4] 2076 	xor	a, a
    00000A1F                       2077 01089$:
    00000A1F F8 29            [12] 2078 	ldhl	sp,	#41
    00000A21 77               [ 8] 2079 	ld	(hl), a
    00000A22 F8 25            [12] 2080 	ldhl	sp,	#37
    00000A24 7E               [ 8] 2081 	ld	a, (hl)
    00000A25 D6 0B            [ 8] 2082 	sub	a, #0x0b
    00000A27 28 20            [12] 2083 	jr	Z, 00175$
    00000A29 F8 25            [12] 2084 	ldhl	sp,	#37
    00000A2B 7E               [ 8] 2085 	ld	a, (hl)
    00000A2C D6 0E            [ 8] 2086 	sub	a, #0x0e
    00000A2E 28 19            [12] 2087 	jr	Z, 00175$
    00000A30 F8 28            [12] 2088 	ldhl	sp,	#40
    00000A32 7E               [ 8] 2089 	ld	a, (hl)
    00000A33 B7               [ 4] 2090 	or	a, a
    00000A34 20 13            [12] 2091 	jr	NZ, 00175$
    00000A36 23               [ 8] 2092 	inc	hl
    00000A37 7E               [ 8] 2093 	ld	a, (hl)
    00000A38 B7               [ 4] 2094 	or	a, a
    00000A39 20 0E            [12] 2095 	jr	NZ, 00175$
    00000A3B 2B               [ 8] 2096 	dec	hl
    00000A3C 2B               [ 8] 2097 	dec	hl
    00000A3D 7E               [ 8] 2098 	ld	a, (hl)
    00000A3E D6 0B            [ 8] 2099 	sub	a, #0x0b
    00000A40 28 07            [12] 2100 	jr	Z, 00175$
    00000A42 F8 27            [12] 2101 	ldhl	sp,	#39
    00000A44 7E               [ 8] 2102 	ld	a, (hl)
    00000A45 D6 0E            [ 8] 2103 	sub	a, #0x0e
    00000A47 20 7A            [12] 2104 	jr	NZ, 00176$
    00000A49                       2105 00175$:
                                   2106 ;src/player.c:94: uint8_t hit = (IS_PAD(mid)) ? mid : (IS_PAD(head) ? head : foot);
    00000A49 F8 26            [12] 2107 	ldhl	sp,	#38
    00000A4B 7E               [ 8] 2108 	ld	a, (hl)
    00000A4C D6 0B            [ 8] 2109 	sub	a, #0x0b
    00000A4E 28 07            [12] 2110 	jr	Z, 00288$
    00000A50 F8 26            [12] 2111 	ldhl	sp,	#38
    00000A52 7E               [ 8] 2112 	ld	a, (hl)
    00000A53 D6 0E            [ 8] 2113 	sub	a, #0x0e
    00000A55 20 05            [12] 2114 	jr	NZ, 00285$
    00000A57                       2115 00288$:
    00000A57 F8 26            [12] 2116 	ldhl	sp,	#38
    00000A59 4E               [ 8] 2117 	ld	c, (hl)
    00000A5A 18 13            [12] 2118 	jr	00286$
    00000A5C                       2119 00285$:
    00000A5C F8 28            [12] 2120 	ldhl	sp,	#40
    00000A5E CB 46            [12] 2121 	bit	0, (hl)
    00000A60 20 05            [12] 2122 	jr	NZ, 00293$
    00000A62 23               [ 8] 2123 	inc	hl
    00000A63 CB 46            [12] 2124 	bit	0, (hl)
    00000A65 28 05            [12] 2125 	jr	Z, 00290$
    00000A67                       2126 00293$:
    00000A67 F8 23            [12] 2127 	ldhl	sp,	#35
    00000A69 4E               [ 8] 2128 	ld	c, (hl)
    00000A6A 18 03            [12] 2129 	jr	00291$
    00000A6C                       2130 00290$:
    00000A6C F8 27            [12] 2131 	ldhl	sp,	#39
    00000A6E 4E               [ 8] 2132 	ld	c, (hl)
    00000A6F                       2133 00291$:
    00000A6F                       2134 00286$:
                                   2135 ;src/player.c:45: int16_t check_y_foot = (p->gravity_flipped) ? ny : ny + PLAYER_SIZE;
    00000A6F F8 07            [12] 2136 	ldhl	sp,#7
    00000A71 2A               [ 8] 2137 	ld	a, (hl+)
    00000A72 5F               [ 4] 2138 	ld	e, a
    00000A73 56               [ 8] 2139 	ld	d, (hl)
    00000A74 1A               [ 8] 2140 	ld	a, (de)
    00000A75 F8 29            [12] 2141 	ldhl	sp,	#41
    00000A77 77               [ 8] 2142 	ld	(hl), a
                                   2143 ;src/player.c:95: if (hit == COL_PAD_BLUE) {
    00000A78 79               [ 4] 2144 	ld	a, c
    00000A79 D6 0E            [ 8] 2145 	sub	a, #0x0e
    00000A7B 20 24            [12] 2146 	jr	NZ, 00156$
                                   2147 ;src/player.c:96: p->gravity_flipped = !p->gravity_flipped;
    00000A7D 7E               [ 8] 2148 	ld	a, (hl)
    00000A7E D6 01            [ 8] 2149 	sub	a, #0x01
    00000A80 3E 00            [ 8] 2150 	ld	a, #0x00
    00000A82 17               [ 4] 2151 	rla
    00000A83 F8 07            [12] 2152 	ldhl	sp,	#7
    00000A85 5E               [ 8] 2153 	ld	e, (hl)
    00000A86 23               [ 8] 2154 	inc	hl
    00000A87 66               [ 8] 2155 	ld	h, (hl)
    00000A88 6B               [ 4] 2156 	ld	l, e
    00000A89 77               [ 8] 2157 	ld	(hl), a
                                   2158 ;src/player.c:98: p->vel_y = (p->gravity_flipped) ? -20 : 20;
    00000A8A F8 09            [12] 2159 	ldhl	sp,	#9
    00000A8C 5E               [ 8] 2160 	ld	e, (hl)
    00000A8D 23               [ 8] 2161 	inc	hl
    00000A8E 56               [ 8] 2162 	ld	d, (hl)
    00000A8F B7               [ 4] 2163 	or	a, a
    00000A90 3E EC            [ 8] 2164 	ld	a, #0xec
    00000A92 20 02            [12] 2165 	jr	NZ, 00296$
    00000A94 3E 14            [ 8] 2166 	ld	a, #0x14
    00000A96                       2167 00296$:
    00000A96 4F               [ 4] 2168 	ld	c, a
    00000A97 07               [ 4] 2169 	rlca
    00000A98 9F               [ 4] 2170 	sbc	a, a
    00000A99 47               [ 4] 2171 	ld	b, a
    00000A9A 79               [ 4] 2172 	ld	a, c
    00000A9B 12               [ 8] 2173 	ld	(de), a
    00000A9C 13               [ 8] 2174 	inc	de
    00000A9D 78               [ 4] 2175 	ld	a, b
    00000A9E 12               [ 8] 2176 	ld	(de), a
    00000A9F 18 18            [12] 2177 	jr	00157$
    00000AA1                       2178 00156$:
                                   2179 ;src/player.c:100: p->vel_y = (p->gravity_flipped) ? -PAD_JUMP_FORCE : PAD_JUMP_FORCE;
    00000AA1 F8 09            [12] 2180 	ldhl	sp,	#9
    00000AA3 2A               [ 8] 2181 	ld	a, (hl+)
    00000AA4 5F               [ 4] 2182 	ld	e, a
    00000AA5 56               [ 8] 2183 	ld	d, (hl)
    00000AA6 F8 29            [12] 2184 	ldhl	sp,	#41
    00000AA8 7E               [ 8] 2185 	ld	a, (hl)
    00000AA9 B7               [ 4] 2186 	or	a, a
    00000AAA 28 05            [12] 2187 	jr	Z, 00297$
    00000AAC 01 8C 00         [12] 2188 	ld	bc, #0x008c
    00000AAF 18 03            [12] 2189 	jr	00298$
    00000AB1                       2190 00297$:
    00000AB1 01 74 FF         [12] 2191 	ld	bc, #0xff74
    00000AB4                       2192 00298$:
    00000AB4 79               [ 4] 2193 	ld	a, c
    00000AB5 12               [ 8] 2194 	ld	(de), a
    00000AB6 13               [ 8] 2195 	inc	de
    00000AB7 78               [ 4] 2196 	ld	a, b
    00000AB8 12               [ 8] 2197 	ld	(de), a
    00000AB9                       2198 00157$:
                                   2199 ;src/player.c:102: p->on_ground = 0;
    00000AB9 F8 05            [12] 2200 	ldhl	sp,	#5
    00000ABB 2A               [ 8] 2201 	ld	a, (hl+)
    00000ABC 66               [ 8] 2202 	ld	h, (hl)
    00000ABD 6F               [ 4] 2203 	ld	l, a
    00000ABE 36 00            [12] 2204 	ld	(hl), #0x00
    00000AC0 C3rDBr0B         [16] 2205 	jp	00177$
    00000AC3                       2206 00176$:
                                   2207 ;src/player.c:103: } else if ((joy & J_A) && (IS_ORB(mid) || IS_ORB(head) || IS_ORB(foot))) {
    00000AC3 AF               [ 4] 2208 	xor	a, a
    00000AC4 F8 0B            [12] 2209 	ldhl	sp,	#11
    00000AC6 B6               [ 8] 2210 	or	a, (hl)
    00000AC7 CArDBr0B         [16] 2211 	jp	Z, 00177$
    00000ACA F8 23            [12] 2212 	ldhl	sp,	#35
    00000ACC 7E               [ 8] 2213 	ld	a, (hl)
    00000ACD D6 0A            [ 8] 2214 	sub	a, #0x0a
    00000ACF 3E 01            [ 8] 2215 	ld	a, #0x01
    00000AD1 28 01            [12] 2216 	jr	Z, 01101$
    00000AD3 AF               [ 4] 2217 	xor	a, a
    00000AD4                       2218 01101$:
    00000AD4 F8 29            [12] 2219 	ldhl	sp,	#41
    00000AD6 77               [ 8] 2220 	ld	(hl), a
    00000AD7 F8 23            [12] 2221 	ldhl	sp,	#35
    00000AD9 7E               [ 8] 2222 	ld	a, (hl)
    00000ADA D6 0C            [ 8] 2223 	sub	a, #0x0c
    00000ADC 3E 01            [ 8] 2224 	ld	a, #0x01
    00000ADE 28 01            [12] 2225 	jr	Z, 01103$
    00000AE0 AF               [ 4] 2226 	xor	a, a
    00000AE1                       2227 01103$:
    00000AE1 47               [ 4] 2228 	ld	b, a
    00000AE2 F8 23            [12] 2229 	ldhl	sp,	#35
    00000AE4 7E               [ 8] 2230 	ld	a, (hl)
    00000AE5 D6 0D            [ 8] 2231 	sub	a, #0x0d
    00000AE7 3E 01            [ 8] 2232 	ld	a, #0x01
    00000AE9 28 01            [12] 2233 	jr	Z, 01105$
    00000AEB AF               [ 4] 2234 	xor	a, a
    00000AEC                       2235 01105$:
    00000AEC 57               [ 4] 2236 	ld	d, a
    00000AED F8 25            [12] 2237 	ldhl	sp,	#37
    00000AEF 7E               [ 8] 2238 	ld	a, (hl)
    00000AF0 D6 0A            [ 8] 2239 	sub	a, #0x0a
    00000AF2 28 30            [12] 2240 	jr	Z, 00164$
    00000AF4 F8 25            [12] 2241 	ldhl	sp,	#37
    00000AF6 7E               [ 8] 2242 	ld	a, (hl)
    00000AF7 D6 0C            [ 8] 2243 	sub	a, #0x0c
    00000AF9 28 29            [12] 2244 	jr	Z, 00164$
    00000AFB F8 25            [12] 2245 	ldhl	sp,	#37
    00000AFD 7E               [ 8] 2246 	ld	a, (hl)
    00000AFE D6 0D            [ 8] 2247 	sub	a, #0x0d
    00000B00 28 22            [12] 2248 	jr	Z, 00164$
    00000B02 F8 29            [12] 2249 	ldhl	sp,	#41
    00000B04 7E               [ 8] 2250 	ld	a, (hl)
    00000B05 B7               [ 4] 2251 	or	a, a
    00000B06 20 1C            [12] 2252 	jr	NZ, 00164$
    00000B08 B0               [ 4] 2253 	or	a, b
    00000B09 20 19            [12] 2254 	jr	NZ, 00164$
    00000B0B B2               [ 4] 2255 	or	a, d
    00000B0C 20 16            [12] 2256 	jr	NZ, 00164$
    00000B0E 2B               [ 8] 2257 	dec	hl
    00000B0F 2B               [ 8] 2258 	dec	hl
    00000B10 7E               [ 8] 2259 	ld	a, (hl)
    00000B11 D6 0A            [ 8] 2260 	sub	a, #0x0a
    00000B13 28 0F            [12] 2261 	jr	Z, 00164$
    00000B15 F8 27            [12] 2262 	ldhl	sp,	#39
    00000B17 7E               [ 8] 2263 	ld	a, (hl)
    00000B18 D6 0C            [ 8] 2264 	sub	a, #0x0c
    00000B1A 28 08            [12] 2265 	jr	Z, 00164$
    00000B1C F8 27            [12] 2266 	ldhl	sp,	#39
    00000B1E 7E               [ 8] 2267 	ld	a, (hl)
    00000B1F D6 0D            [ 8] 2268 	sub	a, #0x0d
    00000B21 C2rDBr0B         [16] 2269 	jp	NZ, 00177$
    00000B24                       2270 00164$:
                                   2271 ;src/player.c:104: uint8_t hit = (IS_ORB(mid)) ? mid : (IS_ORB(head) ? head : foot);
    00000B24 F8 26            [12] 2272 	ldhl	sp,	#38
    00000B26 7E               [ 8] 2273 	ld	a, (hl)
    00000B27 D6 0A            [ 8] 2274 	sub	a, #0x0a
    00000B29 28 0E            [12] 2275 	jr	Z, 00302$
    00000B2B F8 26            [12] 2276 	ldhl	sp,	#38
    00000B2D 7E               [ 8] 2277 	ld	a, (hl)
    00000B2E D6 0C            [ 8] 2278 	sub	a, #0x0c
    00000B30 28 07            [12] 2279 	jr	Z, 00302$
    00000B32 F8 26            [12] 2280 	ldhl	sp,	#38
    00000B34 7E               [ 8] 2281 	ld	a, (hl)
    00000B35 D6 0D            [ 8] 2282 	sub	a, #0x0d
    00000B37 20 05            [12] 2283 	jr	NZ, 00299$
    00000B39                       2284 00302$:
    00000B39 F8 26            [12] 2285 	ldhl	sp,	#38
    00000B3B 7E               [ 8] 2286 	ld	a, (hl)
    00000B3C 18 16            [12] 2287 	jr	00300$
    00000B3E                       2288 00299$:
    00000B3E F8 29            [12] 2289 	ldhl	sp,	#41
    00000B40 CB 46            [12] 2290 	bit	0, (hl)
    00000B42 20 08            [12] 2291 	jr	NZ, 00310$
    00000B44 CB 40            [ 8] 2292 	bit	0, b
    00000B46 20 04            [12] 2293 	jr	NZ, 00310$
    00000B48 CB 42            [ 8] 2294 	bit	0, d
    00000B4A 28 05            [12] 2295 	jr	Z, 00307$
    00000B4C                       2296 00310$:
    00000B4C F8 23            [12] 2297 	ldhl	sp,	#35
    00000B4E 7E               [ 8] 2298 	ld	a, (hl)
    00000B4F 18 03            [12] 2299 	jr	00308$
    00000B51                       2300 00307$:
    00000B51 F8 27            [12] 2301 	ldhl	sp,	#39
    00000B53 7E               [ 8] 2302 	ld	a, (hl)
    00000B54                       2303 00308$:
    00000B54                       2304 00300$:
                                   2305 ;src/player.c:45: int16_t check_y_foot = (p->gravity_flipped) ? ny : ny + PLAYER_SIZE;
    00000B54 F8 07            [12] 2306 	ldhl	sp,#7
    00000B56 5E               [ 8] 2307 	ld	e, (hl)
    00000B57 23               [ 8] 2308 	inc	hl
    00000B58 56               [ 8] 2309 	ld	d, (hl)
    00000B59 F5               [16] 2310 	push	af
    00000B5A 1A               [ 8] 2311 	ld	a, (de)
    00000B5B 4F               [ 4] 2312 	ld	c, a
    00000B5C F1               [12] 2313 	pop	af
                                   2314 ;src/player.c:105: if (hit == COL_ORB_MAGENTA) {
    00000B5D FE 0D            [ 8] 2315 	cp	a, #0x0d
    00000B5F 20 17            [12] 2316 	jr	NZ, 00162$
                                   2317 ;src/player.c:106: p->vel_y = (p->gravity_flipped) ? -MAGENTA_JUMP_FORCE : MAGENTA_JUMP_FORCE;
    00000B61 23               [ 8] 2318 	inc	hl
    00000B62 2A               [ 8] 2319 	ld	a, (hl+)
    00000B63 5F               [ 4] 2320 	ld	e, a
    00000B64 56               [ 8] 2321 	ld	d, (hl)
    00000B65 79               [ 4] 2322 	ld	a, c
    00000B66 B7               [ 4] 2323 	or	a, a
    00000B67 3E 3C            [ 8] 2324 	ld	a, #0x3c
    00000B69 20 02            [12] 2325 	jr	NZ, 00316$
    00000B6B 3E C4            [ 8] 2326 	ld	a, #0xc4
    00000B6D                       2327 00316$:
    00000B6D 4F               [ 4] 2328 	ld	c, a
    00000B6E 07               [ 4] 2329 	rlca
    00000B6F 9F               [ 4] 2330 	sbc	a, a
    00000B70 47               [ 4] 2331 	ld	b, a
    00000B71 79               [ 4] 2332 	ld	a, c
    00000B72 12               [ 8] 2333 	ld	(de), a
    00000B73 13               [ 8] 2334 	inc	de
    00000B74 78               [ 4] 2335 	ld	a, b
    00000B75 12               [ 8] 2336 	ld	(de), a
    00000B76 18 5C            [12] 2337 	jr	00163$
    00000B78                       2338 00162$:
                                   2339 ;src/player.c:107: } else if (hit == COL_ORB_BLUE) {
    00000B78 D6 0C            [ 8] 2340 	sub	a, #0x0c
    00000B7A 20 30            [12] 2341 	jr	NZ, 00159$
                                   2342 ;src/player.c:108: p->gravity_flipped = !p->gravity_flipped;
    00000B7C 79               [ 4] 2343 	ld	a, c
    00000B7D D6 01            [ 8] 2344 	sub	a, #0x01
    00000B7F 3E 00            [ 8] 2345 	ld	a, #0x00
    00000B81 17               [ 4] 2346 	rla
    00000B82 F8 07            [12] 2347 	ldhl	sp,	#7
    00000B84 5E               [ 8] 2348 	ld	e, (hl)
    00000B85 23               [ 8] 2349 	inc	hl
    00000B86 66               [ 8] 2350 	ld	h, (hl)
    00000B87 6B               [ 4] 2351 	ld	l, e
    00000B88 77               [ 8] 2352 	ld	(hl), a
                                   2353 ;src/player.c:109: p->vel_y = (p->gravity_flipped) ? -20 : 20;
    00000B89 F5               [16] 2354 	push	af
    00000B8A F8 0B            [12] 2355 	ldhl	sp,	#11
    00000B8C 7E               [ 8] 2356 	ld	a, (hl)
    00000B8D F8 2A            [12] 2357 	ldhl	sp,	#42
    00000B8F 77               [ 8] 2358 	ld	(hl), a
    00000B90 F8 0C            [12] 2359 	ldhl	sp,	#12
    00000B92 7E               [ 8] 2360 	ld	a, (hl)
    00000B93 F8 2B            [12] 2361 	ldhl	sp,	#43
    00000B95 77               [ 8] 2362 	ld	(hl), a
    00000B96 F1               [12] 2363 	pop	af
    00000B97 B7               [ 4] 2364 	or	a, a
    00000B98 3E EC            [ 8] 2365 	ld	a, #0xec
    00000B9A 20 02            [12] 2366 	jr	NZ, 00318$
    00000B9C 3E 14            [ 8] 2367 	ld	a, #0x14
    00000B9E                       2368 00318$:
    00000B9E 4F               [ 4] 2369 	ld	c, a
    00000B9F 07               [ 4] 2370 	rlca
    00000BA0 9F               [ 4] 2371 	sbc	a, a
    00000BA1 47               [ 4] 2372 	ld	b, a
    00000BA2 F8 28            [12] 2373 	ldhl	sp,	#40
    00000BA4 2A               [ 8] 2374 	ld	a, (hl+)
    00000BA5 66               [ 8] 2375 	ld	h, (hl)
    00000BA6 6F               [ 4] 2376 	ld	l, a
    00000BA7 79               [ 4] 2377 	ld	a, c
    00000BA8 22               [ 8] 2378 	ld	(hl+), a
    00000BA9 70               [ 8] 2379 	ld	(hl), b
    00000BAA 18 28            [12] 2380 	jr	00163$
    00000BAC                       2381 00159$:
                                   2382 ;src/player.c:111: p->vel_y = (p->gravity_flipped) ? -JUMP_FORCE : JUMP_FORCE;
    00000BAC F8 09            [12] 2383 	ldhl	sp,	#9
    00000BAE 7E               [ 8] 2384 	ld	a, (hl)
    00000BAF F8 28            [12] 2385 	ldhl	sp,	#40
    00000BB1 77               [ 8] 2386 	ld	(hl), a
    00000BB2 F8 0A            [12] 2387 	ldhl	sp,	#10
    00000BB4 7E               [ 8] 2388 	ld	a, (hl)
    00000BB5 F8 29            [12] 2389 	ldhl	sp,	#41
    00000BB7 77               [ 8] 2390 	ld	(hl), a
    00000BB8 79               [ 4] 2391 	ld	a, c
    00000BB9 B7               [ 4] 2392 	or	a, a
    00000BBA 28 06            [12] 2393 	jr	Z, 00319$
    00000BBC F8 26            [12] 2394 	ldhl	sp,	#38
    00000BBE 36 5D            [12] 2395 	ld	(hl), #0x5d
    00000BC0 18 04            [12] 2396 	jr	00320$
    00000BC2                       2397 00319$:
    00000BC2 F8 26            [12] 2398 	ldhl	sp,	#38
    00000BC4 36 A3            [12] 2399 	ld	(hl), #0xa3
    00000BC6                       2400 00320$:
    00000BC6 F8 26            [12] 2401 	ldhl	sp,	#38
    00000BC8 2A               [ 8] 2402 	ld	a, (hl+)
    00000BC9 23               [ 8] 2403 	inc	hl
    00000BCA 4F               [ 4] 2404 	ld	c, a
    00000BCB 07               [ 4] 2405 	rlca
    00000BCC 9F               [ 4] 2406 	sbc	a, a
    00000BCD 47               [ 4] 2407 	ld	b, a
    00000BCE 2A               [ 8] 2408 	ld	a, (hl+)
    00000BCF 66               [ 8] 2409 	ld	h, (hl)
    00000BD0 6F               [ 4] 2410 	ld	l, a
    00000BD1 79               [ 4] 2411 	ld	a, c
    00000BD2 22               [ 8] 2412 	ld	(hl+), a
    00000BD3 70               [ 8] 2413 	ld	(hl), b
    00000BD4                       2414 00163$:
                                   2415 ;src/player.c:113: p->on_ground = 0;
    00000BD4 F8 05            [12] 2416 	ldhl	sp,	#5
    00000BD6 2A               [ 8] 2417 	ld	a, (hl+)
    00000BD7 66               [ 8] 2418 	ld	h, (hl)
    00000BD8 6F               [ 4] 2419 	ld	l, a
    00000BD9 36 00            [12] 2420 	ld	(hl), #0x00
    00000BDB                       2421 00177$:
                                   2422 ;src/player.c:117: if (IS_HAZARD(head) || IS_HAZARD(foot) || IS_SOLID(head) || IS_SOLID(foot)) {
    00000BDB F8 23            [12] 2423 	ldhl	sp,	#35
    00000BDD 7E               [ 8] 2424 	ld	a, (hl)
    00000BDE D6 08            [ 8] 2425 	sub	a, #0x08
    00000BE0 28 75            [12] 2426 	jr	Z, 00183$
    00000BE2 F8 23            [12] 2427 	ldhl	sp,	#35
    00000BE4 7E               [ 8] 2428 	ld	a, (hl)
    00000BE5 D6 03            [ 8] 2429 	sub	a, #0x03
    00000BE7 28 6E            [12] 2430 	jr	Z, 00183$
    00000BE9 F8 23            [12] 2431 	ldhl	sp,	#35
    00000BEB 7E               [ 8] 2432 	ld	a, (hl)
    00000BEC D6 04            [ 8] 2433 	sub	a, #0x04
    00000BEE 28 67            [12] 2434 	jr	Z, 00183$
    00000BF0 F8 23            [12] 2435 	ldhl	sp,	#35
    00000BF2 7E               [ 8] 2436 	ld	a, (hl)
    00000BF3 D6 02            [ 8] 2437 	sub	a, #0x02
    00000BF5 28 60            [12] 2438 	jr	Z, 00183$
    00000BF7 F8 23            [12] 2439 	ldhl	sp,	#35
    00000BF9 7E               [ 8] 2440 	ld	a, (hl)
    00000BFA 3D               [ 4] 2441 	dec	a
    00000BFB 28 5A            [12] 2442 	jr	Z, 00183$
    00000BFD F8 27            [12] 2443 	ldhl	sp,	#39
    00000BFF 7E               [ 8] 2444 	ld	a, (hl)
    00000C00 D6 08            [ 8] 2445 	sub	a, #0x08
    00000C02 28 53            [12] 2446 	jr	Z, 00183$
    00000C04 F8 27            [12] 2447 	ldhl	sp,	#39
    00000C06 7E               [ 8] 2448 	ld	a, (hl)
    00000C07 D6 03            [ 8] 2449 	sub	a, #0x03
    00000C09 28 4C            [12] 2450 	jr	Z, 00183$
    00000C0B F8 27            [12] 2451 	ldhl	sp,	#39
    00000C0D 7E               [ 8] 2452 	ld	a, (hl)
    00000C0E D6 04            [ 8] 2453 	sub	a, #0x04
    00000C10 28 45            [12] 2454 	jr	Z, 00183$
    00000C12 F8 27            [12] 2455 	ldhl	sp,	#39
    00000C14 7E               [ 8] 2456 	ld	a, (hl)
    00000C15 D6 02            [ 8] 2457 	sub	a, #0x02
    00000C17 28 3E            [12] 2458 	jr	Z, 00183$
    00000C19 F8 27            [12] 2459 	ldhl	sp,	#39
    00000C1B 7E               [ 8] 2460 	ld	a, (hl)
    00000C1C 3D               [ 4] 2461 	dec	a
    00000C1D 28 38            [12] 2462 	jr	Z, 00183$
    00000C1F F8 23            [12] 2463 	ldhl	sp,	#35
    00000C21 7E               [ 8] 2464 	ld	a, (hl)
    00000C22 D6 07            [ 8] 2465 	sub	a, #0x07
    00000C24 28 31            [12] 2466 	jr	Z, 00183$
    00000C26 F8 23            [12] 2467 	ldhl	sp,	#35
    00000C28 7E               [ 8] 2468 	ld	a, (hl)
    00000C29 D6 09            [ 8] 2469 	sub	a, #0x09
    00000C2B 28 2A            [12] 2470 	jr	Z, 00183$
    00000C2D F8 23            [12] 2471 	ldhl	sp,	#35
    00000C2F 7E               [ 8] 2472 	ld	a, (hl)
    00000C30 D6 05            [ 8] 2473 	sub	a, #0x05
    00000C32 28 23            [12] 2474 	jr	Z, 00183$
    00000C34 F8 23            [12] 2475 	ldhl	sp,	#35
    00000C36 7E               [ 8] 2476 	ld	a, (hl)
    00000C37 D6 06            [ 8] 2477 	sub	a, #0x06
    00000C39 28 1C            [12] 2478 	jr	Z, 00183$
    00000C3B F8 27            [12] 2479 	ldhl	sp,	#39
    00000C3D 7E               [ 8] 2480 	ld	a, (hl)
    00000C3E D6 07            [ 8] 2481 	sub	a, #0x07
    00000C40 28 15            [12] 2482 	jr	Z, 00183$
    00000C42 F8 27            [12] 2483 	ldhl	sp,	#39
    00000C44 7E               [ 8] 2484 	ld	a, (hl)
    00000C45 D6 09            [ 8] 2485 	sub	a, #0x09
    00000C47 28 0E            [12] 2486 	jr	Z, 00183$
    00000C49 F8 27            [12] 2487 	ldhl	sp,	#39
    00000C4B 7E               [ 8] 2488 	ld	a, (hl)
    00000C4C D6 05            [ 8] 2489 	sub	a, #0x05
    00000C4E 28 07            [12] 2490 	jr	Z, 00183$
    00000C50 F8 27            [12] 2491 	ldhl	sp,	#39
    00000C52 7E               [ 8] 2492 	ld	a, (hl)
    00000C53 D6 06            [ 8] 2493 	sub	a, #0x06
    00000C55 20 0B            [12] 2494 	jr	NZ, 00184$
    00000C57                       2495 00183$:
                                   2496 ;src/player.c:118: p->dead = 1;
    00000C57 F8 03            [12] 2497 	ldhl	sp,	#3
    00000C59 2A               [ 8] 2498 	ld	a, (hl+)
    00000C5A 66               [ 8] 2499 	ld	h, (hl)
    00000C5B 6F               [ 4] 2500 	ld	l, a
                                   2501 ;src/player.c:119: return 1;
    00000C5C 3E 01            [ 8] 2502 	ld	a,#0x01
    00000C5E 77               [ 8] 2503 	ld	(hl),a
    00000C5F C3r37r0D         [16] 2504 	jp	00271$
    00000C62                       2505 00184$:
                                   2506 ;src/player.c:123: if (p->on_ground) {
    00000C62 F8 05            [12] 2507 	ldhl	sp,#5
    00000C64 2A               [ 8] 2508 	ld	a, (hl+)
    00000C65 5F               [ 4] 2509 	ld	e, a
    00000C66 56               [ 8] 2510 	ld	d, (hl)
    00000C67 1A               [ 8] 2511 	ld	a, (de)
    00000C68 F8 29            [12] 2512 	ldhl	sp,	#41
    00000C6A 77               [ 8] 2513 	ld	(hl), a
                                   2514 ;src/player.c:124: p->anim_timer = 0;
    00000C6B F8 2B            [12] 2515 	ldhl	sp,#43
    00000C6D 2A               [ 8] 2516 	ld	a, (hl+)
    00000C6E 5F               [ 4] 2517 	ld	e, a
    00000C6F 56               [ 8] 2518 	ld	d, (hl)
    00000C70 21 0A 00         [12] 2519 	ld	hl, #0x000a
    00000C73 19               [ 8] 2520 	add	hl, de
    00000C74 4D               [ 4] 2521 	ld	c, l
    00000C75 44               [ 4] 2522 	ld	b, h
                                   2523 ;src/player.c:125: p->anim_frame = 0;
    00000C76 F8 2B            [12] 2524 	ldhl	sp,#43
    00000C78 2A               [ 8] 2525 	ld	a, (hl+)
    00000C79 5F               [ 4] 2526 	ld	e, a
    00000C7A 56               [ 8] 2527 	ld	d, (hl)
    00000C7B 21 09 00         [12] 2528 	ld	hl, #0x0009
    00000C7E 19               [ 8] 2529 	add	hl, de
    00000C7F E5               [16] 2530 	push	hl
    00000C80 7D               [ 4] 2531 	ld	a, l
    00000C81 F8 29            [12] 2532 	ldhl	sp,	#41
    00000C83 77               [ 8] 2533 	ld	(hl), a
    00000C84 E1               [12] 2534 	pop	hl
    00000C85 7C               [ 4] 2535 	ld	a, h
    00000C86 F8 28            [12] 2536 	ldhl	sp,	#40
                                   2537 ;src/player.c:123: if (p->on_ground) {
    00000C88 22               [ 8] 2538 	ld	(hl+), a
    00000C89 7E               [ 8] 2539 	ld	a, (hl)
    00000C8A B7               [ 4] 2540 	or	a, a
    00000C8B 28 0C            [12] 2541 	jr	Z, 00203$
                                   2542 ;src/player.c:124: p->anim_timer = 0;
                                   2543 ;src/player.c:125: p->anim_frame = 0;
    00000C8D 2B               [ 8] 2544 	dec	hl
    00000C8E AF               [ 4] 2545 	xor	a, a
    00000C8F 02               [ 8] 2546 	ld	(bc), a
    00000C90 03               [ 8] 2547 	inc	bc
    00000C91 02               [ 8] 2548 	ld	(bc), a
    00000C92 3A               [ 8] 2549 	ld	a, (hl-)
    00000C93 6E               [ 8] 2550 	ld	l, (hl)
    00000C94 67               [ 4] 2551 	ld	h, a
    00000C95 36 00            [12] 2552 	ld	(hl), #0x00
    00000C97 18 30            [12] 2553 	jr	00204$
    00000C99                       2554 00203$:
                                   2555 ;src/player.c:127: p->anim_timer++;
    00000C99 69               [ 4] 2556 	ld	l, c
    00000C9A 60               [ 4] 2557 	ld	h, b
    00000C9B 2A               [ 8] 2558 	ld	a,	(hl+)
    00000C9C 66               [ 8] 2559 	ld	h, (hl)
    00000C9D 6F               [ 4] 2560 	ld	l, a
    00000C9E 23               [ 8] 2561 	inc	hl
    00000C9F 7D               [ 4] 2562 	ld	a, l
    00000CA0 02               [ 8] 2563 	ld	(bc), a
    00000CA1 03               [ 8] 2564 	inc	bc
    00000CA2 7C               [ 4] 2565 	ld	a, h
    00000CA3 02               [ 8] 2566 	ld	(bc), a
                                   2567 ;src/player.c:129: p->anim_frame = ((uint32_t)p->anim_timer * 2 / 3) % 24;
    00000CA4 4D               [ 4] 2568 	ld	c, l
    00000CA5 44               [ 4] 2569 	ld	b, h
    00000CA6 11 00 00         [12] 2570 	ld	de, #0x0000
    00000CA9 CB 21            [ 8] 2571 	sla	c
    00000CAB CB 10            [ 8] 2572 	rl	b
    00000CAD CB 13            [ 8] 2573 	rl	e
    00000CAF CB 12            [ 8] 2574 	rl	d
    00000CB1 21 00 00         [12] 2575 	ld	hl, #0x0000
    00000CB4 E5               [16] 2576 	push	hl
    00000CB5 2E 03            [ 8] 2577 	ld	l, #0x03
    00000CB7 E5               [16] 2578 	push	hl
    00000CB8 CDr00r00         [24] 2579 	call	__divulong
    00000CBB 59               [ 4] 2580 	ld	e, c
    00000CBC 50               [ 4] 2581 	ld	d, b
    00000CBD 01 18 00         [12] 2582 	ld	bc, #0x0018
    00000CC0 CDr00r00         [24] 2583 	call	__modsint
    00000CC3 F8 27            [12] 2584 	ldhl	sp,	#39
    00000CC5 2A               [ 8] 2585 	ld	a, (hl+)
    00000CC6 66               [ 8] 2586 	ld	h, (hl)
    00000CC7 6F               [ 4] 2587 	ld	l, a
    00000CC8 71               [ 8] 2588 	ld	(hl), c
    00000CC9                       2589 00204$:
                                   2590 ;src/player.c:40: int16_t ny = p->world_y + pixels;
    00000CC9 F8 0D            [12] 2591 	ldhl	sp,#13
    00000CCB 2A               [ 8] 2592 	ld	a, (hl+)
    00000CCC 5F               [ 4] 2593 	ld	e, a
    00000CCD 56               [ 8] 2594 	ld	d, (hl)
    00000CCE 1A               [ 8] 2595 	ld	a, (de)
    00000CCF F8 28            [12] 2596 	ldhl	sp,	#40
    00000CD1 22               [ 8] 2597 	ld	(hl+), a
    00000CD2 13               [ 8] 2598 	inc	de
    00000CD3 1A               [ 8] 2599 	ld	a, (de)
    00000CD4 77               [ 8] 2600 	ld	(hl), a
                                   2601 ;src/player.c:133: if (p->world_y > (int16_t)((uint16_t)map_h << 4) || p->world_y < -32) {
    00000CD5 F8 19            [12] 2602 	ldhl	sp,	#25
    00000CD7 7E               [ 8] 2603 	ld	a, (hl)
    00000CD8 F8 26            [12] 2604 	ldhl	sp,	#38
    00000CDA 77               [ 8] 2605 	ld	(hl), a
    00000CDB F8 1A            [12] 2606 	ldhl	sp,	#26
    00000CDD 7E               [ 8] 2607 	ld	a, (hl)
    00000CDE F8 27            [12] 2608 	ldhl	sp,	#39
    00000CE0 77               [ 8] 2609 	ld	(hl), a
    00000CE1 3E 04            [ 8] 2610 	ld	a, #0x04
    00000CE3                       2611 01142$:
    00000CE3 F8 26            [12] 2612 	ldhl	sp,	#38
    00000CE5 CB 26            [16] 2613 	sla	(hl)
    00000CE7 23               [ 8] 2614 	inc	hl
    00000CE8 CB 16            [16] 2615 	rl	(hl)
    00000CEA 3D               [ 4] 2616 	dec	a
    00000CEB 20 F6            [12] 2617 	jr	NZ, 01142$
    00000CED F8 26            [12] 2618 	ldhl	sp,	#38
    00000CEF 5D               [ 4] 2619 	ld	e, l
    00000CF0 54               [ 4] 2620 	ld	d, h
    00000CF1 F8 28            [12] 2621 	ldhl	sp,	#40
    00000CF3 1A               [ 8] 2622 	ld	a, (de)
    00000CF4 13               [ 8] 2623 	inc	de
    00000CF5 96               [ 8] 2624 	sub	a, (hl)
    00000CF6 23               [ 8] 2625 	inc	hl
    00000CF7 1A               [ 8] 2626 	ld	a, (de)
    00000CF8 9E               [ 8] 2627 	sbc	a, (hl)
    00000CF9 1A               [ 8] 2628 	ld	a, (de)
    00000CFA 57               [ 4] 2629 	ld	d, a
    00000CFB 5E               [ 8] 2630 	ld	e, (hl)
    00000CFC CB 7B            [ 8] 2631 	bit	7, e
    00000CFE 28 07            [12] 2632 	jr	Z, 01143$
    00000D00 CB 7A            [ 8] 2633 	bit	7, d
    00000D02 20 08            [12] 2634 	jr	NZ, 01144$
    00000D04 BF               [ 4] 2635 	cp	a, a
    00000D05 18 05            [12] 2636 	jr	01144$
    00000D07                       2637 01143$:
    00000D07 CB 7A            [ 8] 2638 	bit	7, d
    00000D09 28 01            [12] 2639 	jr	Z, 01144$
    00000D0B 37               [ 4] 2640 	scf
    00000D0C                       2641 01144$:
    00000D0C 38 1E            [12] 2642 	jr	C, 00205$
    00000D0E F8 28            [12] 2643 	ldhl	sp,	#40
    00000D10 2A               [ 8] 2644 	ld	a, (hl+)
    00000D11 D6 E0            [ 8] 2645 	sub	a, #0xe0
    00000D13 7E               [ 8] 2646 	ld	a, (hl)
    00000D14 DE FF            [ 8] 2647 	sbc	a, #0xff
    00000D16 56               [ 8] 2648 	ld	d, (hl)
    00000D17 3E FF            [ 8] 2649 	ld	a, #0xff
    00000D19 5F               [ 4] 2650 	ld	e, a
    00000D1A CB 7B            [ 8] 2651 	bit	7, e
    00000D1C 28 07            [12] 2652 	jr	Z, 01145$
    00000D1E CB 7A            [ 8] 2653 	bit	7, d
    00000D20 20 08            [12] 2654 	jr	NZ, 01146$
    00000D22 BF               [ 4] 2655 	cp	a, a
    00000D23 18 05            [12] 2656 	jr	01146$
    00000D25                       2657 01145$:
    00000D25 CB 7A            [ 8] 2658 	bit	7, d
    00000D27 28 01            [12] 2659 	jr	Z, 01146$
    00000D29 37               [ 4] 2660 	scf
    00000D2A                       2661 01146$:
    00000D2A 30 0A            [12] 2662 	jr	NC, 00206$
    00000D2C                       2663 00205$:
                                   2664 ;src/player.c:134: p->dead = 1;
    00000D2C F8 03            [12] 2665 	ldhl	sp,	#3
    00000D2E 2A               [ 8] 2666 	ld	a, (hl+)
    00000D2F 66               [ 8] 2667 	ld	h, (hl)
    00000D30 6F               [ 4] 2668 	ld	l, a
                                   2669 ;src/player.c:135: return 1;
    00000D31 3E 01            [ 8] 2670 	ld	a,#0x01
    00000D33 77               [ 8] 2671 	ld	(hl),a
    00000D34 18 01            [12] 2672 	jr	00271$
    00000D36                       2673 00206$:
                                   2674 ;src/player.c:138: return 0;
    00000D36 AF               [ 4] 2675 	xor	a, a
    00000D37                       2676 00271$:
                                   2677 ;src/player.c:139: }
    00000D37 E8 2D            [16] 2678 	add	sp, #45
    00000D39 E1               [12] 2679 	pop	hl
    00000D3A E8 06            [16] 2680 	add	sp, #6
    00000D3C E9               [ 4] 2681 	jp	(hl)
                                   2682 	.area _HOME
                                   2683 ;--------------------------------------------------------
                                   2684 ; code
                                   2685 ;--------------------------------------------------------
                                   2686 	.area _CODE
                                   2687 ;include/collision.h:39: static inline uint8_t col_of(uint8_t tile_id) {
                                   2688 ;	---------------------------------
                                   2689 ; Function col_of
                                   2690 ; ---------------------------------
    00000000                       2691 _col_of:
    00000000 4F               [ 4] 2692 	ld	c, a
                                   2693 ;include/collision.h:40: return famidash_metatile_collision[tile_id];
    00000001 21r00r00         [12] 2694 	ld	hl, #_famidash_metatile_collision
    00000004 06 00            [ 8] 2695 	ld	b, #0x00
    00000006 09               [ 8] 2696 	add	hl, bc
    00000007 7E               [ 8] 2697 	ld	a, (hl)
                                   2698 ;include/collision.h:41: }
    00000008 C9               [16] 2699 	ret
                                   2700 ;include/collision.h:44: static inline uint8_t col_at(
                                   2701 ;	---------------------------------
                                   2702 ; Function col_at
                                   2703 ; ---------------------------------
    00000009                       2704 _col_at:
    00000009 E8 FC            [16] 2705 	add	sp, #-4
    0000000B F8 02            [12] 2706 	ldhl	sp,	#2
    0000000D 7B               [ 4] 2707 	ld	a, e
    0000000E 22               [ 8] 2708 	ld	(hl+), a
    0000000F 72               [ 8] 2709 	ld	(hl), d
                                   2710 ;include/collision.h:51: if (world_py < 0) return COL_NONE;
    00000010 60               [ 4] 2711 	ld	h, b
    00000011 CB 7C            [ 8] 2712 	bit	7, h
    00000013 28 03            [12] 2713 	jr	Z, 00102$
    00000015 AF               [ 4] 2714 	xor	a, a
    00000016 18 6E            [12] 2715 	jr	00107$
    00000018                       2716 00102$:
                                   2717 ;include/collision.h:52: uint16_t mx = world_px >> 4;
    00000018 F8 02            [12] 2718 	ldhl	sp,	#2
    0000001A 3A               [ 8] 2719 	ld	a, (hl-)
    0000001B 2B               [ 8] 2720 	dec	hl
    0000001C 77               [ 8] 2721 	ld	(hl), a
    0000001D F8 03            [12] 2722 	ldhl	sp,	#3
    0000001F 3A               [ 8] 2723 	ld	a, (hl-)
    00000020 2B               [ 8] 2724 	dec	hl
    00000021 77               [ 8] 2725 	ld	(hl), a
    00000022 CB 3E            [16] 2726 	srl	(hl)
    00000024 2B               [ 8] 2727 	dec	hl
    00000025 CB 1E            [16] 2728 	rr	(hl)
    00000027 23               [ 8] 2729 	inc	hl
    00000028 CB 3E            [16] 2730 	srl	(hl)
    0000002A 2B               [ 8] 2731 	dec	hl
    0000002B CB 1E            [16] 2732 	rr	(hl)
    0000002D 23               [ 8] 2733 	inc	hl
    0000002E CB 3E            [16] 2734 	srl	(hl)
    00000030 2B               [ 8] 2735 	dec	hl
    00000031 CB 1E            [16] 2736 	rr	(hl)
    00000033 23               [ 8] 2737 	inc	hl
    00000034 CB 3E            [16] 2738 	srl	(hl)
    00000036 2B               [ 8] 2739 	dec	hl
    00000037 CB 1E            [16] 2740 	rr	(hl)
                                   2741 ;include/collision.h:53: uint16_t my = (uint16_t)world_py >> 4;
    00000039 59               [ 4] 2742 	ld	e, c
    0000003A 50               [ 4] 2743 	ld	d, b
    0000003B CB 3A            [ 8] 2744 	srl	d
    0000003D CB 1B            [ 8] 2745 	rr	e
    0000003F CB 3A            [ 8] 2746 	srl	d
    00000041 CB 1B            [ 8] 2747 	rr	e
    00000043 CB 3A            [ 8] 2748 	srl	d
    00000045 CB 1B            [ 8] 2749 	rr	e
    00000047 CB 3A            [ 8] 2750 	srl	d
    00000049 CB 1B            [ 8] 2751 	rr	e
                                   2752 ;include/collision.h:55: if (mx >= map_w || my >= map_h) return COL_ALL;
    0000004B D5               [16] 2753 	push	de
    0000004C F8 02            [12] 2754 	ldhl	sp,	#2
    0000004E 5D               [ 4] 2755 	ld	e, l
    0000004F 54               [ 4] 2756 	ld	d, h
    00000050 F8 0A            [12] 2757 	ldhl	sp,	#10
    00000052 1A               [ 8] 2758 	ld	a, (de)
    00000053 13               [ 8] 2759 	inc	de
    00000054 96               [ 8] 2760 	sub	a, (hl)
    00000055 23               [ 8] 2761 	inc	hl
    00000056 1A               [ 8] 2762 	ld	a, (de)
    00000057 9E               [ 8] 2763 	sbc	a, (hl)
    00000058 D1               [12] 2764 	pop	de
    00000059 30 09            [12] 2765 	jr	NC, 00103$
    0000005B F8 0A            [12] 2766 	ldhl	sp,	#10
    0000005D 7B               [ 4] 2767 	ld	a, e
    0000005E 96               [ 8] 2768 	sub	a, (hl)
    0000005F 23               [ 8] 2769 	inc	hl
    00000060 7A               [ 4] 2770 	ld	a, d
    00000061 9E               [ 8] 2771 	sbc	a, (hl)
    00000062 38 04            [12] 2772 	jr	C, 00104$
    00000064                       2773 00103$:
    00000064 3E 07            [ 8] 2774 	ld	a, #0x07
    00000066 18 1E            [12] 2775 	jr	00107$
    00000068                       2776 00104$:
                                   2777 ;include/collision.h:56: return col_of(map[(uint16_t)my * map_w + mx]);
    00000068 F8 08            [12] 2778 	ldhl	sp,	#8
    0000006A 2A               [ 8] 2779 	ld	a, (hl+)
    0000006B 4F               [ 4] 2780 	ld	c, a
    0000006C 46               [ 8] 2781 	ld	b, (hl)
    0000006D CDr00r00         [24] 2782 	call	__mulint
    00000070 E1               [12] 2783 	pop	hl
    00000071 E5               [16] 2784 	push	hl
    00000072 09               [ 8] 2785 	add	hl, bc
    00000073 4D               [ 4] 2786 	ld	c, l
    00000074 44               [ 4] 2787 	ld	b, h
    00000075 F8 06            [12] 2788 	ldhl	sp,	#6
    00000077 2A               [ 8] 2789 	ld	a,	(hl+)
    00000078 66               [ 8] 2790 	ld	h, (hl)
    00000079 6F               [ 4] 2791 	ld	l, a
    0000007A 09               [ 8] 2792 	add	hl, bc
    0000007B 4D               [ 4] 2793 	ld	c, l
    0000007C 44               [ 4] 2794 	ld	b, h
    0000007D 0A               [ 8] 2795 	ld	a, (bc)
    0000007E 4F               [ 4] 2796 	ld	c, a
                                   2797 ;include/collision.h:40: return famidash_metatile_collision[tile_id];
    0000007F 21r00r00         [12] 2798 	ld	hl, #_famidash_metatile_collision
    00000082 06 00            [ 8] 2799 	ld	b, #0x00
    00000084 09               [ 8] 2800 	add	hl, bc
    00000085 7E               [ 8] 2801 	ld	a, (hl)
                                   2802 ;include/collision.h:56: return col_of(map[(uint16_t)my * map_w + mx]);
    00000086                       2803 00107$:
                                   2804 ;include/collision.h:57: }
    00000086 E8 04            [16] 2805 	add	sp, #4
    00000088 E1               [12] 2806 	pop	hl
    00000089 E8 06            [16] 2807 	add	sp, #6
    0000008B E9               [ 4] 2808 	jp	(hl)
                                   2809 ;include/player.h:33: static inline void player_init(Player *p, uint16_t start_x, int16_t start_y) {
                                   2810 ;	---------------------------------
                                   2811 ; Function player_init
                                   2812 ; ---------------------------------
    0000008C                       2813 _player_init:
                                   2814 ;include/player.h:34: p->world_x   = start_x;
    0000008C 6B               [ 4] 2815 	ld	l, e
    0000008D 62               [ 4] 2816 	ld	h, d
    0000008E 79               [ 4] 2817 	ld	a, c
    0000008F 22               [ 8] 2818 	ld	(hl+), a
    00000090 70               [ 8] 2819 	ld	(hl), b
                                   2820 ;include/player.h:35: p->world_y   = start_y;
    00000091 4B               [ 4] 2821 	ld	c, e
    00000092 42               [ 4] 2822 	ld	b, d
    00000093 03               [ 8] 2823 	inc	bc
    00000094 03               [ 8] 2824 	inc	bc
    00000095 F8 02            [12] 2825 	ldhl	sp,	#2
    00000097 2A               [ 8] 2826 	ld	a, (hl+)
    00000098 02               [ 8] 2827 	ld	(bc), a
    00000099 03               [ 8] 2828 	inc	bc
    0000009A 7E               [ 8] 2829 	ld	a, (hl)
    0000009B 02               [ 8] 2830 	ld	(bc), a
                                   2831 ;include/player.h:36: p->vel_y     = 0;
    0000009C 21 04 00         [12] 2832 	ld	hl, #0x0004
    0000009F 19               [ 8] 2833 	add	hl, de
    000000A0 AF               [ 4] 2834 	xor	a, a
    000000A1 22               [ 8] 2835 	ld	(hl+), a
    000000A2 77               [ 8] 2836 	ld	(hl), a
                                   2837 ;include/player.h:37: p->on_ground = 0;
    000000A3 21 06 00         [12] 2838 	ld	hl, #0x0006
    000000A6 19               [ 8] 2839 	add	hl, de
    000000A7 36 00            [12] 2840 	ld	(hl), #0x00
                                   2841 ;include/player.h:38: p->dead      = 0;
    000000A9 21 07 00         [12] 2842 	ld	hl, #0x0007
    000000AC 19               [ 8] 2843 	add	hl, de
    000000AD 36 00            [12] 2844 	ld	(hl), #0x00
                                   2845 ;include/player.h:39: p->gravity_flipped = 0;
    000000AF 21 08 00         [12] 2846 	ld	hl, #0x0008
    000000B2 19               [ 8] 2847 	add	hl, de
    000000B3 36 00            [12] 2848 	ld	(hl), #0x00
                                   2849 ;include/player.h:40: p->anim_frame = 0;
    000000B5 21 09 00         [12] 2850 	ld	hl, #0x0009
    000000B8 19               [ 8] 2851 	add	hl, de
    000000B9 36 00            [12] 2852 	ld	(hl), #0x00
                                   2853 ;include/player.h:41: p->anim_timer = 0;
    000000BB 21 0A 00         [12] 2854 	ld	hl, #0x000a
    000000BE 19               [ 8] 2855 	add	hl, de
    000000BF AF               [ 4] 2856 	xor	a, a
    000000C0 22               [ 8] 2857 	ld	(hl+), a
    000000C1 77               [ 8] 2858 	ld	(hl), a
                                   2859 ;include/player.h:42: }
    000000C2 E1               [12] 2860 	pop	hl
    000000C3 F1               [12] 2861 	pop	af
    000000C4 E9               [ 4] 2862 	jp	(hl)
                                   2863 ;include/player.h:45: static inline uint8_t col_point(
                                   2864 ;	---------------------------------
                                   2865 ; Function col_point
                                   2866 ; ---------------------------------
    000000C5                       2867 _col_point:
    000000C5 E8 F8            [16] 2868 	add	sp, #-8
    000000C7 F8 06            [12] 2869 	ldhl	sp,	#6
    000000C9 7B               [ 4] 2870 	ld	a, e
    000000CA 22               [ 8] 2871 	ld	(hl+), a
    000000CB 72               [ 8] 2872 	ld	(hl), d
                                   2873 ;include/player.h:49: return col_at(px, py, map, map_w, map_h);
    000000CC F8 0C            [12] 2874 	ldhl	sp,	#12
    000000CE 7E               [ 8] 2875 	ld	a, (hl)
    000000CF F8 00            [12] 2876 	ldhl	sp,	#0
    000000D1 77               [ 8] 2877 	ld	(hl), a
    000000D2 F8 0D            [12] 2878 	ldhl	sp,	#13
    000000D4 7E               [ 8] 2879 	ld	a, (hl)
    000000D5 F8 01            [12] 2880 	ldhl	sp,	#1
    000000D7 77               [ 8] 2881 	ld	(hl), a
    000000D8 F8 0A            [12] 2882 	ldhl	sp,	#10
    000000DA 7E               [ 8] 2883 	ld	a, (hl)
    000000DB F8 02            [12] 2884 	ldhl	sp,	#2
    000000DD 77               [ 8] 2885 	ld	(hl), a
    000000DE F8 0B            [12] 2886 	ldhl	sp,	#11
    000000E0 7E               [ 8] 2887 	ld	a, (hl)
    000000E1 F8 03            [12] 2888 	ldhl	sp,	#3
    000000E3 77               [ 8] 2889 	ld	(hl), a
                                   2890 ;include/collision.h:51: if (world_py < 0) return COL_NONE;
    000000E4 60               [ 4] 2891 	ld	h, b
    000000E5 CB 7C            [ 8] 2892 	bit	7, h
    000000E7 28 04            [12] 2893 	jr	Z, 00102$
    000000E9 0E 00            [ 8] 2894 	ld	c, #0x00
    000000EB 18 6E            [12] 2895 	jr	00107$
    000000ED                       2896 00102$:
                                   2897 ;include/collision.h:52: uint16_t mx = world_px >> 4;
    000000ED F8 06            [12] 2898 	ldhl	sp,	#6
    000000EF 3A               [ 8] 2899 	ld	a, (hl-)
    000000F0 2B               [ 8] 2900 	dec	hl
    000000F1 77               [ 8] 2901 	ld	(hl), a
    000000F2 F8 07            [12] 2902 	ldhl	sp,	#7
    000000F4 3A               [ 8] 2903 	ld	a, (hl-)
    000000F5 2B               [ 8] 2904 	dec	hl
    000000F6 77               [ 8] 2905 	ld	(hl), a
    000000F7 CB 3E            [16] 2906 	srl	(hl)
    000000F9 2B               [ 8] 2907 	dec	hl
    000000FA CB 1E            [16] 2908 	rr	(hl)
    000000FC 23               [ 8] 2909 	inc	hl
    000000FD CB 3E            [16] 2910 	srl	(hl)
    000000FF 2B               [ 8] 2911 	dec	hl
    00000100 CB 1E            [16] 2912 	rr	(hl)
    00000102 23               [ 8] 2913 	inc	hl
    00000103 CB 3E            [16] 2914 	srl	(hl)
    00000105 2B               [ 8] 2915 	dec	hl
    00000106 CB 1E            [16] 2916 	rr	(hl)
    00000108 23               [ 8] 2917 	inc	hl
    00000109 CB 3E            [16] 2918 	srl	(hl)
    0000010B 2B               [ 8] 2919 	dec	hl
    0000010C CB 1E            [16] 2920 	rr	(hl)
                                   2921 ;include/collision.h:53: uint16_t my = (uint16_t)world_py >> 4;
    0000010E 59               [ 4] 2922 	ld	e, c
    0000010F 50               [ 4] 2923 	ld	d, b
    00000110 CB 3A            [ 8] 2924 	srl	d
    00000112 CB 1B            [ 8] 2925 	rr	e
    00000114 CB 3A            [ 8] 2926 	srl	d
    00000116 CB 1B            [ 8] 2927 	rr	e
    00000118 CB 3A            [ 8] 2928 	srl	d
    0000011A CB 1B            [ 8] 2929 	rr	e
    0000011C CB 3A            [ 8] 2930 	srl	d
    0000011E CB 1B            [ 8] 2931 	rr	e
                                   2932 ;include/collision.h:55: if (mx >= map_w || my >= map_h) return COL_ALL;
    00000120 D5               [16] 2933 	push	de
    00000121 F8 06            [12] 2934 	ldhl	sp,	#6
    00000123 5D               [ 4] 2935 	ld	e, l
    00000124 54               [ 4] 2936 	ld	d, h
    00000125 F8 02            [12] 2937 	ldhl	sp,	#2
    00000127 1A               [ 8] 2938 	ld	a, (de)
    00000128 13               [ 8] 2939 	inc	de
    00000129 96               [ 8] 2940 	sub	a, (hl)
    0000012A 23               [ 8] 2941 	inc	hl
    0000012B 1A               [ 8] 2942 	ld	a, (de)
    0000012C 9E               [ 8] 2943 	sbc	a, (hl)
    0000012D D1               [12] 2944 	pop	de
    0000012E 30 09            [12] 2945 	jr	NC, 00104$
    00000130 F8 0E            [12] 2946 	ldhl	sp,	#14
    00000132 7B               [ 4] 2947 	ld	a, e
    00000133 96               [ 8] 2948 	sub	a, (hl)
    00000134 23               [ 8] 2949 	inc	hl
    00000135 7A               [ 4] 2950 	ld	a, d
    00000136 9E               [ 8] 2951 	sbc	a, (hl)
    00000137 38 04            [12] 2952 	jr	C, 00105$
    00000139                       2953 00104$:
    00000139 0E 07            [ 8] 2954 	ld	c, #0x07
    0000013B 18 1E            [12] 2955 	jr	00107$
    0000013D                       2956 00105$:
                                   2957 ;include/collision.h:56: return col_of(map[(uint16_t)my * map_w + mx]);
    0000013D C1               [12] 2958 	pop	bc
    0000013E C5               [16] 2959 	push	bc
    0000013F CDr00r00         [24] 2960 	call	__mulint
    00000142 F8 04            [12] 2961 	ldhl	sp,	#4
    00000144 2A               [ 8] 2962 	ld	a,	(hl+)
    00000145 66               [ 8] 2963 	ld	h, (hl)
    00000146 6F               [ 4] 2964 	ld	l, a
    00000147 09               [ 8] 2965 	add	hl, bc
    00000148 4D               [ 4] 2966 	ld	c, l
    00000149 44               [ 4] 2967 	ld	b, h
    0000014A F8 02            [12] 2968 	ldhl	sp,	#2
    0000014C 2A               [ 8] 2969 	ld	a,	(hl+)
    0000014D 66               [ 8] 2970 	ld	h, (hl)
    0000014E 6F               [ 4] 2971 	ld	l, a
    0000014F 09               [ 8] 2972 	add	hl, bc
    00000150 4D               [ 4] 2973 	ld	c, l
    00000151 44               [ 4] 2974 	ld	b, h
    00000152 0A               [ 8] 2975 	ld	a, (bc)
    00000153 4F               [ 4] 2976 	ld	c, a
                                   2977 ;include/collision.h:40: return famidash_metatile_collision[tile_id];
    00000154 21r00r00         [12] 2978 	ld	hl, #_famidash_metatile_collision
    00000157 06 00            [ 8] 2979 	ld	b, #0x00
    00000159 09               [ 8] 2980 	add	hl, bc
    0000015A 4E               [ 8] 2981 	ld	c, (hl)
                                   2982 ;include/player.h:49: return col_at(px, py, map, map_w, map_h);
    0000015B                       2983 00107$:
    0000015B 79               [ 4] 2984 	ld	a, c
                                   2985 ;include/player.h:50: }
    0000015C E8 08            [16] 2986 	add	sp, #8
    0000015E E1               [12] 2987 	pop	hl
    0000015F E8 06            [16] 2988 	add	sp, #6
    00000161 E9               [ 4] 2989 	jp	(hl)
                                   2990 ;include/player.h:61: static inline int16_t player_screen_y(const Player *p, uint16_t cam_py) {
                                   2991 ;	---------------------------------
                                   2992 ; Function player_screen_y
                                   2993 ; ---------------------------------
    00000162                       2994 _player_screen_y:
                                   2995 ;include/player.h:62: return p->world_y - (int16_t)cam_py;
    00000162 6B               [ 4] 2996 	ld	l, e
    00000163 62               [ 4] 2997 	ld	h, d
    00000164 23               [ 8] 2998 	inc	hl
    00000165 23               [ 8] 2999 	inc	hl
    00000166 2A               [ 8] 3000 	ld	a, (hl+)
    00000167 6E               [ 8] 3001 	ld	l, (hl)
    00000168 91               [ 4] 3002 	sub	a, c
    00000169 4F               [ 4] 3003 	ld	c, a
    0000016A 7D               [ 4] 3004 	ld	a, l
    0000016B 98               [ 4] 3005 	sbc	a, b
    0000016C 47               [ 4] 3006 	ld	b, a
                                   3007 ;include/player.h:63: }
    0000016D C9               [16] 3008 	ret
                                   3009 	.area _CODE
                                   3010 	.area _INITIALIZER
    00000000                       3011 __xinit__player_noclip:
    00000000 00                    3012 	.db #0x00	; 0
                                   3013 	.area _CABS (ABS)
