                                      1 ;--------------------------------------------------------
                                      2 ; File Created by SDCC : free open source ISO C Compiler
                                      3 ; Version 4.5.1 #15267 (MINGW64)
                                      4 ;--------------------------------------------------------
                                      5 	.module player
                                      6 	
                                      7 ;--------------------------------------------------------
                                      8 ; Public variables in this module
                                      9 ;--------------------------------------------------------
                                     10 	.globl _player_noclip
                                     11 	.globl _player_update
                                     12 ;--------------------------------------------------------
                                     13 ; special function registers
                                     14 ;--------------------------------------------------------
                                     15 	.area _HRAM
                                     16 ;--------------------------------------------------------
                                     17 ; ram data
                                     18 ;--------------------------------------------------------
                                     19 	.area _DATA
                                     20 ;--------------------------------------------------------
                                     21 ; ram data
                                     22 ;--------------------------------------------------------
                                     23 	.area _INITIALIZED
    00000000                         24 _player_noclip::
    00000000                         25 	.ds 1
                                     26 ;--------------------------------------------------------
                                     27 ; absolute external ram data
                                     28 ;--------------------------------------------------------
                                     29 	.area _DABS (ABS)
                                     30 ;--------------------------------------------------------
                                     31 ; global & static initialisations
                                     32 ;--------------------------------------------------------
                                     33 	.area _HOME
                                     34 	.area _GSINIT
                                     35 	.area _GSFINAL
                                     36 	.area _GSINIT
                                     37 ;--------------------------------------------------------
                                     38 ; Home
                                     39 ;--------------------------------------------------------
                                     40 	.area _HOME
                                     41 ;src/player.c:5: uint8_t player_update(
                                     42 ;	---------------------------------
                                     43 ; Function player_update
                                     44 ; ---------------------------------
    00000000                         45 _player_update::
    00000000 E8 D7            [16]   46 	add	sp, #-41
    00000002 F8 26            [12]   47 	ldhl	sp,	#38
    00000004 73               [ 8]   48 	ld	(hl), e
    00000005 23               [ 8]   49 	inc	hl
    00000006 72               [ 8]   50 	ld	(hl), d
    00000007 2B               [ 8]   51 	dec	hl
    00000008 2B               [ 8]   52 	dec	hl
                                     53 ;src/player.c:12: if (p->dead) return 1;
    00000009 22               [ 8]   54 	ld	(hl+), a
    0000000A 2A               [ 8]   55 	ld	a, (hl+)
    0000000B 5F               [ 4]   56 	ld	e, a
    0000000C 56               [ 8]   57 	ld	d, (hl)
    0000000D 21 07 00         [12]   58 	ld	hl, #0x0007
    00000010 19               [ 8]   59 	add	hl, de
    00000011 E5               [16]   60 	push	hl
    00000012 7D               [ 4]   61 	ld	a, l
    00000013 F8 06            [12]   62 	ldhl	sp,	#6
    00000015 77               [ 8]   63 	ld	(hl), a
    00000016 E1               [12]   64 	pop	hl
    00000017 7C               [ 4]   65 	ld	a, h
    00000018 F8 05            [12]   66 	ldhl	sp,	#5
    0000001A 32               [ 8]   67 	ld	(hl-), a
    0000001B 2A               [ 8]   68 	ld	a, (hl+)
    0000001C 5F               [ 4]   69 	ld	e, a
    0000001D 56               [ 8]   70 	ld	d, (hl)
    0000001E 1A               [ 8]   71 	ld	a, (de)
    0000001F F8 28            [12]   72 	ldhl	sp,	#40
    00000021 77               [ 8]   73 	ld	(hl), a
    00000022 B7               [ 4]   74 	or	a, a
    00000023 28 05            [12]   75 	jr	Z, 00102$
    00000025 3E 01            [ 8]   76 	ld	a, #0x01
    00000027 C3r11r10         [16]   77 	jp	00389$
    0000002A                         78 00102$:
                                     79 ;src/player.c:15: if (!p->on_ground) {
    0000002A F8 26            [12]   80 	ldhl	sp,#38
    0000002C 2A               [ 8]   81 	ld	a, (hl+)
    0000002D 5F               [ 4]   82 	ld	e, a
    0000002E 56               [ 8]   83 	ld	d, (hl)
    0000002F 21 06 00         [12]   84 	ld	hl, #0x0006
    00000032 19               [ 8]   85 	add	hl, de
    00000033 E5               [16]   86 	push	hl
    00000034 7D               [ 4]   87 	ld	a, l
    00000035 F8 08            [12]   88 	ldhl	sp,	#8
    00000037 77               [ 8]   89 	ld	(hl), a
    00000038 E1               [12]   90 	pop	hl
    00000039 7C               [ 4]   91 	ld	a, h
    0000003A F8 07            [12]   92 	ldhl	sp,	#7
    0000003C 32               [ 8]   93 	ld	(hl-), a
    0000003D 2A               [ 8]   94 	ld	a, (hl+)
    0000003E 5F               [ 4]   95 	ld	e, a
    0000003F 56               [ 8]   96 	ld	d, (hl)
    00000040 1A               [ 8]   97 	ld	a, (de)
    00000041 4F               [ 4]   98 	ld	c, a
                                     99 ;src/player.c:16: p->vel_y += GRAVITY;
    00000042 F8 26            [12]  100 	ldhl	sp,#38
    00000044 2A               [ 8]  101 	ld	a, (hl+)
    00000045 5F               [ 4]  102 	ld	e, a
    00000046 56               [ 8]  103 	ld	d, (hl)
    00000047 21 04 00         [12]  104 	ld	hl, #0x0004
    0000004A 19               [ 8]  105 	add	hl, de
    0000004B E5               [16]  106 	push	hl
    0000004C 7D               [ 4]  107 	ld	a, l
    0000004D F8 25            [12]  108 	ldhl	sp,	#37
    0000004F 77               [ 8]  109 	ld	(hl), a
    00000050 E1               [12]  110 	pop	hl
    00000051 7C               [ 4]  111 	ld	a, h
    00000052 F8 24            [12]  112 	ldhl	sp,	#36
    00000054 77               [ 8]  113 	ld	(hl), a
                                    114 ;src/player.c:15: if (!p->on_ground) {
    00000055 79               [ 4]  115 	ld	a, c
    00000056 B7               [ 4]  116 	or	a, a
    00000057 20 41            [12]  117 	jr	NZ, 00106$
                                    118 ;src/player.c:16: p->vel_y += GRAVITY;
    00000059 2B               [ 8]  119 	dec	hl
    0000005A 2A               [ 8]  120 	ld	a, (hl+)
    0000005B 5F               [ 4]  121 	ld	e, a
    0000005C 56               [ 8]  122 	ld	d, (hl)
    0000005D 1A               [ 8]  123 	ld	a, (de)
    0000005E F8 21            [12]  124 	ldhl	sp,	#33
    00000060 22               [ 8]  125 	ld	(hl+), a
    00000061 13               [ 8]  126 	inc	de
    00000062 1A               [ 8]  127 	ld	a, (de)
    00000063 32               [ 8]  128 	ld	(hl-), a
    00000064 2A               [ 8]  129 	ld	a, (hl+)
    00000065 5F               [ 4]  130 	ld	e, a
    00000066 56               [ 8]  131 	ld	d, (hl)
    00000067 21 0A 00         [12]  132 	ld	hl, #0x000a
    0000006A 19               [ 8]  133 	add	hl, de
    0000006B 4D               [ 4]  134 	ld	c, l
    0000006C 44               [ 4]  135 	ld	b, h
    0000006D F8 23            [12]  136 	ldhl	sp,	#35
    0000006F 2A               [ 8]  137 	ld	a, (hl+)
    00000070 66               [ 8]  138 	ld	h, (hl)
    00000071 6F               [ 4]  139 	ld	l, a
    00000072 79               [ 4]  140 	ld	a, c
    00000073 22               [ 8]  141 	ld	(hl+), a
    00000074 70               [ 8]  142 	ld	(hl), b
                                    143 ;src/player.c:17: if (p->vel_y > MAX_FALL_SPEED) p->vel_y = MAX_FALL_SPEED;
    00000075 58               [ 4]  144 	ld	e, b
    00000076 16 00            [ 8]  145 	ld	d, #0x00
    00000078 3E 5F            [ 8]  146 	ld	a, #0x5f
    0000007A B9               [ 4]  147 	cp	a, c
    0000007B 3E 00            [ 8]  148 	ld	a, #0x00
    0000007D 98               [ 4]  149 	sbc	a, b
    0000007E CB 7B            [ 8]  150 	bit	7, e
    00000080 28 07            [12]  151 	jr	Z, 01165$
    00000082 CB 7A            [ 8]  152 	bit	7, d
    00000084 20 08            [12]  153 	jr	NZ, 01166$
    00000086 BF               [ 4]  154 	cp	a, a
    00000087 18 05            [12]  155 	jr	01166$
    00000089                        156 01165$:
    00000089 CB 7A            [ 8]  157 	bit	7, d
    0000008B 28 01            [12]  158 	jr	Z, 01166$
    0000008D 37               [ 4]  159 	scf
    0000008E                        160 01166$:
    0000008E 30 0A            [12]  161 	jr	NC, 00106$
    00000090 F8 23            [12]  162 	ldhl	sp,	#35
    00000092 2A               [ 8]  163 	ld	a, (hl+)
    00000093 66               [ 8]  164 	ld	h, (hl)
    00000094 6F               [ 4]  165 	ld	l, a
    00000095 3E 5F            [ 8]  166 	ld	a, #0x5f
    00000097 22               [ 8]  167 	ld	(hl+), a
    00000098 36 00            [12]  168 	ld	(hl), #0x00
    0000009A                        169 00106$:
                                    170 ;src/player.c:23: if (joy & J_A) {
    0000009A F8 25            [12]  171 	ldhl	sp,	#37
    0000009C 7E               [ 8]  172 	ld	a, (hl)
    0000009D E6 10            [ 8]  173 	and	a, #0x10
    0000009F F8 21            [12]  174 	ldhl	sp,	#33
    000000A1 22               [ 8]  175 	ld	(hl+), a
    000000A2 36 00            [12]  176 	ld	(hl), #0x00
                                    177 ;src/player.c:22: if (player_noclip) {
    000000A4 FAr00r00         [16]  178 	ld	a, (#_player_noclip)
    000000A7 B7               [ 4]  179 	or	a, a
    000000A8 28 12            [12]  180 	jr	Z, 00113$
                                    181 ;src/player.c:23: if (joy & J_A) {
    000000AA AF               [ 4]  182 	xor	a, a
    000000AB F8 21            [12]  183 	ldhl	sp,	#33
    000000AD B6               [ 8]  184 	or	a, (hl)
    000000AE 28 2C            [12]  185 	jr	Z, 00114$
                                    186 ;src/player.c:24: p->vel_y = JUMP_FORCE;
    000000B0 23               [ 8]  187 	inc	hl
    000000B1 23               [ 8]  188 	inc	hl
    000000B2 2A               [ 8]  189 	ld	a, (hl+)
    000000B3 66               [ 8]  190 	ld	h, (hl)
    000000B4 6F               [ 4]  191 	ld	l, a
    000000B5 3E A3            [ 8]  192 	ld	a, #0xa3
    000000B7 22               [ 8]  193 	ld	(hl+), a
    000000B8 36 FF            [12]  194 	ld	(hl), #0xff
    000000BA 18 20            [12]  195 	jr	00114$
    000000BC                        196 00113$:
                                    197 ;src/player.c:26: } else if ((joy & J_A) && p->on_ground) {
    000000BC AF               [ 4]  198 	xor	a, a
    000000BD F8 21            [12]  199 	ldhl	sp,	#33
    000000BF B6               [ 8]  200 	or	a, (hl)
    000000C0 28 1A            [12]  201 	jr	Z, 00114$
    000000C2 F8 06            [12]  202 	ldhl	sp,#6
    000000C4 2A               [ 8]  203 	ld	a, (hl+)
    000000C5 5F               [ 4]  204 	ld	e, a
    000000C6 56               [ 8]  205 	ld	d, (hl)
    000000C7 1A               [ 8]  206 	ld	a, (de)
    000000C8 B7               [ 4]  207 	or	a, a
    000000C9 28 11            [12]  208 	jr	Z, 00114$
                                    209 ;src/player.c:27: p->vel_y = JUMP_FORCE;
    000000CB F8 23            [12]  210 	ldhl	sp,	#35
    000000CD 2A               [ 8]  211 	ld	a, (hl+)
    000000CE 66               [ 8]  212 	ld	h, (hl)
    000000CF 6F               [ 4]  213 	ld	l, a
    000000D0 3E A3            [ 8]  214 	ld	a, #0xa3
    000000D2 22               [ 8]  215 	ld	(hl+), a
    000000D3 36 FF            [12]  216 	ld	(hl), #0xff
                                    217 ;src/player.c:28: p->on_ground = 0;
    000000D5 F8 06            [12]  218 	ldhl	sp,	#6
    000000D7 2A               [ 8]  219 	ld	a, (hl+)
    000000D8 66               [ 8]  220 	ld	h, (hl)
    000000D9 6F               [ 4]  221 	ld	l, a
    000000DA 36 00            [12]  222 	ld	(hl), #0x00
    000000DC                        223 00114$:
                                    224 ;src/player.c:32: int8_t pixels = (int8_t)(p->vel_y >> 4);
    000000DC F8 23            [12]  225 	ldhl	sp,	#35
    000000DE 7E               [ 8]  226 	ld	a, (hl)
    000000DF F8 08            [12]  227 	ldhl	sp,	#8
    000000E1 77               [ 8]  228 	ld	(hl), a
    000000E2 F8 24            [12]  229 	ldhl	sp,	#36
    000000E4 7E               [ 8]  230 	ld	a, (hl)
    000000E5 F8 09            [12]  231 	ldhl	sp,	#9
    000000E7 77               [ 8]  232 	ld	(hl), a
    000000E8 F8 23            [12]  233 	ldhl	sp,#35
    000000EA 2A               [ 8]  234 	ld	a, (hl+)
    000000EB 5F               [ 4]  235 	ld	e, a
    000000EC 56               [ 8]  236 	ld	d, (hl)
    000000ED 1A               [ 8]  237 	ld	a, (de)
    000000EE 4F               [ 4]  238 	ld	c, a
    000000EF 13               [ 8]  239 	inc	de
    000000F0 1A               [ 8]  240 	ld	a, (de)
    000000F1 47               [ 4]  241 	ld	b, a
    000000F2 CB 28            [ 8]  242 	sra	b
    000000F4 CB 19            [ 8]  243 	rr	c
    000000F6 CB 28            [ 8]  244 	sra	b
    000000F8 CB 19            [ 8]  245 	rr	c
    000000FA CB 28            [ 8]  246 	sra	b
    000000FC CB 19            [ 8]  247 	rr	c
    000000FE CB 28            [ 8]  248 	sra	b
    00000100 CB 19            [ 8]  249 	rr	c
                                    250 ;src/player.c:33: int8_t step   = (pixels >= 0) ? 1 : -1;
    00000102 79               [ 4]  251 	ld	a, c
    00000103 07               [ 4]  252 	rlca
    00000104 E6 01            [ 8]  253 	and	a,#0x01
    00000106 47               [ 4]  254 	ld	b, a
    00000107 CB 40            [ 8]  255 	bit	0, b
    00000109 3E 01            [ 8]  256 	ld	a, #0x01
    0000010B 28 02            [12]  257 	jr	Z, 00392$
    0000010D 3E FF            [ 8]  258 	ld	a, #0xff
    0000010F                        259 00392$:
    0000010F F8 0A            [12]  260 	ldhl	sp,	#10
    00000111 77               [ 8]  261 	ld	(hl), a
                                    262 ;src/player.c:34: int8_t steps  = (pixels >= 0) ? pixels : -pixels;
    00000112 CB 40            [ 8]  263 	bit	0, b
    00000114 28 03            [12]  264 	jr	Z, 00394$
    00000116 AF               [ 4]  265 	xor	a, a
    00000117 91               [ 4]  266 	sub	a, c
    00000118 4F               [ 4]  267 	ld	c, a
    00000119                        268 00394$:
    00000119 F8 0B            [12]  269 	ldhl	sp,	#11
    0000011B 71               [ 8]  270 	ld	(hl), c
                                    271 ;src/player.c:35: if (steps > 16) steps = 16;
    0000011C 5E               [ 8]  272 	ld	e, (hl)
    0000011D 3E 10            [ 8]  273 	ld	a,#0x10
    0000011F 57               [ 4]  274 	ld	d,a
    00000120 96               [ 8]  275 	sub	a, (hl)
    00000121 CB 7B            [ 8]  276 	bit	7, e
    00000123 28 07            [12]  277 	jr	Z, 01167$
    00000125 CB 7A            [ 8]  278 	bit	7, d
    00000127 20 08            [12]  279 	jr	NZ, 01168$
    00000129 BF               [ 4]  280 	cp	a, a
    0000012A 18 05            [12]  281 	jr	01168$
    0000012C                        282 01167$:
    0000012C CB 7A            [ 8]  283 	bit	7, d
    0000012E 28 01            [12]  284 	jr	Z, 01168$
    00000130 37               [ 4]  285 	scf
    00000131                        286 01168$:
    00000131 30 04            [12]  287 	jr	NC, 00116$
    00000133 F8 0B            [12]  288 	ldhl	sp,	#11
    00000135 36 10            [12]  289 	ld	(hl), #0x10
    00000137                        290 00116$:
                                    291 ;src/player.c:37: p->on_ground = 0;
    00000137 F8 06            [12]  292 	ldhl	sp,	#6
    00000139 2A               [ 8]  293 	ld	a, (hl+)
    0000013A 66               [ 8]  294 	ld	h, (hl)
    0000013B 6F               [ 4]  295 	ld	l, a
    0000013C 36 00            [12]  296 	ld	(hl), #0x00
                                    297 ;src/player.c:40: for (int8_t i = 0; i < steps; i++) {
    0000013E F8 2F            [12]  298 	ldhl	sp,	#47
    00000140 7E               [ 8]  299 	ld	a, (hl)
    00000141 F8 0C            [12]  300 	ldhl	sp,	#12
    00000143 77               [ 8]  301 	ld	(hl), a
    00000144 F8 30            [12]  302 	ldhl	sp,	#48
    00000146 7E               [ 8]  303 	ld	a, (hl)
    00000147 F8 0D            [12]  304 	ldhl	sp,	#13
    00000149 77               [ 8]  305 	ld	(hl), a
    0000014A F8 2D            [12]  306 	ldhl	sp,	#45
    0000014C 7E               [ 8]  307 	ld	a, (hl)
    0000014D F8 0E            [12]  308 	ldhl	sp,	#14
    0000014F 77               [ 8]  309 	ld	(hl), a
    00000150 F8 2E            [12]  310 	ldhl	sp,	#46
    00000152 7E               [ 8]  311 	ld	a, (hl)
    00000153 F8 0F            [12]  312 	ldhl	sp,	#15
    00000155 77               [ 8]  313 	ld	(hl), a
    00000156 F8 2B            [12]  314 	ldhl	sp,	#43
    00000158 7E               [ 8]  315 	ld	a, (hl)
    00000159 F8 10            [12]  316 	ldhl	sp,	#16
    0000015B 77               [ 8]  317 	ld	(hl), a
    0000015C F8 2C            [12]  318 	ldhl	sp,	#44
    0000015E 7E               [ 8]  319 	ld	a, (hl)
    0000015F F8 11            [12]  320 	ldhl	sp,	#17
    00000161 77               [ 8]  321 	ld	(hl), a
    00000162 F8 0A            [12]  322 	ldhl	sp,	#10
    00000164 5E               [ 8]  323 	ld	e, (hl)
    00000165 AF               [ 4]  324 	xor	a, a
    00000166 57               [ 4]  325 	ld	d, a
    00000167 96               [ 8]  326 	sub	a, (hl)
    00000168 CB 7B            [ 8]  327 	bit	7, e
    0000016A 28 07            [12]  328 	jr	Z, 01169$
    0000016C CB 7A            [ 8]  329 	bit	7, d
    0000016E 20 08            [12]  330 	jr	NZ, 01170$
    00000170 BF               [ 4]  331 	cp	a, a
    00000171 18 05            [12]  332 	jr	01170$
    00000173                        333 01169$:
    00000173 CB 7A            [ 8]  334 	bit	7, d
    00000175 28 01            [12]  335 	jr	Z, 01170$
    00000177 37               [ 4]  336 	scf
    00000178                        337 01170$:
    00000178 3E 00            [ 8]  338 	ld	a, #0x00
    0000017A 17               [ 4]  339 	rla
    0000017B F8 12            [12]  340 	ldhl	sp,	#18
    0000017D 77               [ 8]  341 	ld	(hl), a
    0000017E F8 0C            [12]  342 	ldhl	sp,	#12
    00000180 7E               [ 8]  343 	ld	a, (hl)
    00000181 F8 13            [12]  344 	ldhl	sp,	#19
    00000183 77               [ 8]  345 	ld	(hl), a
    00000184 F8 0D            [12]  346 	ldhl	sp,	#13
    00000186 7E               [ 8]  347 	ld	a, (hl)
    00000187 F8 14            [12]  348 	ldhl	sp,	#20
    00000189 77               [ 8]  349 	ld	(hl), a
    0000018A F8 0E            [12]  350 	ldhl	sp,	#14
    0000018C 7E               [ 8]  351 	ld	a, (hl)
    0000018D F8 15            [12]  352 	ldhl	sp,	#21
    0000018F 77               [ 8]  353 	ld	(hl), a
    00000190 F8 0F            [12]  354 	ldhl	sp,	#15
    00000192 7E               [ 8]  355 	ld	a, (hl)
    00000193 F8 16            [12]  356 	ldhl	sp,	#22
    00000195 77               [ 8]  357 	ld	(hl), a
    00000196 F8 10            [12]  358 	ldhl	sp,	#16
    00000198 7E               [ 8]  359 	ld	a, (hl)
    00000199 F8 17            [12]  360 	ldhl	sp,	#23
    0000019B 77               [ 8]  361 	ld	(hl), a
    0000019C F8 11            [12]  362 	ldhl	sp,	#17
    0000019E 7E               [ 8]  363 	ld	a, (hl)
    0000019F F8 18            [12]  364 	ldhl	sp,	#24
    000001A1 77               [ 8]  365 	ld	(hl), a
    000001A2 F8 28            [12]  366 	ldhl	sp,	#40
    000001A4 36 00            [12]  367 	ld	(hl), #0x00
    000001A6                        368 00387$:
                                    369 ;src/player.c:41: int16_t ny = p->world_y + step;
    000001A6 F8 26            [12]  370 	ldhl	sp,#38
    000001A8 2A               [ 8]  371 	ld	a, (hl+)
    000001A9 5F               [ 4]  372 	ld	e, a
    000001AA 56               [ 8]  373 	ld	d, (hl)
    000001AB 21 02 00         [12]  374 	ld	hl, #0x0002
    000001AE 19               [ 8]  375 	add	hl, de
    000001AF E5               [16]  376 	push	hl
    000001B0 7D               [ 4]  377 	ld	a, l
    000001B1 F8 1B            [12]  378 	ldhl	sp,	#27
    000001B3 77               [ 8]  379 	ld	(hl), a
    000001B4 E1               [12]  380 	pop	hl
    000001B5 7C               [ 4]  381 	ld	a, h
    000001B6 F8 1A            [12]  382 	ldhl	sp,	#26
    000001B8 77               [ 8]  383 	ld	(hl), a
                                    384 ;src/player.c:46: uint8_t cl = col_point(p->world_x,              ny + PLAYER_SIZE, map, map_w, map_h);
    000001B9 F8 26            [12]  385 	ldhl	sp,	#38
    000001BB 7E               [ 8]  386 	ld	a, (hl)
    000001BC F8 1B            [12]  387 	ldhl	sp,	#27
    000001BE 77               [ 8]  388 	ld	(hl), a
    000001BF F8 27            [12]  389 	ldhl	sp,	#39
    000001C1 7E               [ 8]  390 	ld	a, (hl)
    000001C2 F8 1C            [12]  391 	ldhl	sp,	#28
    000001C4 77               [ 8]  392 	ld	(hl), a
                                    393 ;src/player.c:40: for (int8_t i = 0; i < steps; i++) {
    000001C5 F8 0B            [12]  394 	ldhl	sp,	#11
    000001C7 5E               [ 8]  395 	ld	e, (hl)
    000001C8 F8 28            [12]  396 	ldhl	sp,	#40
    000001CA 7E               [ 8]  397 	ld	a,(hl)
    000001CB 57               [ 4]  398 	ld	d,a
    000001CC F8 0B            [12]  399 	ldhl	sp,	#11
    000001CE 96               [ 8]  400 	sub	a, (hl)
    000001CF CB 7B            [ 8]  401 	bit	7, e
    000001D1 28 07            [12]  402 	jr	Z, 01171$
    000001D3 CB 7A            [ 8]  403 	bit	7, d
    000001D5 20 08            [12]  404 	jr	NZ, 01172$
    000001D7 BF               [ 4]  405 	cp	a, a
    000001D8 18 05            [12]  406 	jr	01172$
    000001DA                        407 01171$:
    000001DA CB 7A            [ 8]  408 	bit	7, d
    000001DC 28 01            [12]  409 	jr	Z, 01172$
    000001DE 37               [ 4]  410 	scf
    000001DF                        411 01172$:
    000001DF D2r4Er05         [16]  412 	jp	NC, 00140$
                                    413 ;src/player.c:41: int16_t ny = p->world_y + step;
    000001E2 F8 19            [12]  414 	ldhl	sp,#25
    000001E4 2A               [ 8]  415 	ld	a, (hl+)
    000001E5 5F               [ 4]  416 	ld	e, a
    000001E6 56               [ 8]  417 	ld	d, (hl)
    000001E7 1A               [ 8]  418 	ld	a, (de)
    000001E8 4F               [ 4]  419 	ld	c, a
    000001E9 13               [ 8]  420 	inc	de
    000001EA 1A               [ 8]  421 	ld	a, (de)
    000001EB 47               [ 4]  422 	ld	b, a
    000001EC F8 0A            [12]  423 	ldhl	sp,	#10
    000001EE 7E               [ 8]  424 	ld	a, (hl)
    000001EF 5F               [ 4]  425 	ld	e, a
    000001F0 07               [ 4]  426 	rlca
    000001F1 9F               [ 4]  427 	sbc	a, a
    000001F2 57               [ 4]  428 	ld	d, a
    000001F3 79               [ 4]  429 	ld	a, c
    000001F4 83               [ 4]  430 	add	a, e
    000001F5 4F               [ 4]  431 	ld	c, a
    000001F6 78               [ 4]  432 	ld	a, b
    000001F7 8A               [ 4]  433 	adc	a, d
    000001F8 F8 1D            [12]  434 	ldhl	sp,	#29
    000001FA 71               [ 8]  435 	ld	(hl), c
    000001FB 23               [ 8]  436 	inc	hl
    000001FC 77               [ 8]  437 	ld	(hl), a
                                    438 ;src/player.c:43: if (!player_noclip) {
    000001FD FAr00r00         [16]  439 	ld	a, (#_player_noclip)
    00000200 B7               [ 4]  440 	or	a, a
    00000201 C2r3Cr05         [16]  441 	jp	NZ, 00139$
                                    442 ;src/player.c:46: uint8_t cl = col_point(p->world_x,              ny + PLAYER_SIZE, map, map_w, map_h);
    00000204 F8 1D            [12]  443 	ldhl	sp,	#29
    00000206 7E               [ 8]  444 	ld	a, (hl)
    00000207 F8 21            [12]  445 	ldhl	sp,	#33
    00000209 77               [ 8]  446 	ld	(hl), a
    0000020A F8 1E            [12]  447 	ldhl	sp,	#30
    0000020C 7E               [ 8]  448 	ld	a, (hl)
    0000020D F8 22            [12]  449 	ldhl	sp,	#34
    0000020F 77               [ 8]  450 	ld	(hl), a
    00000210 F8 1B            [12]  451 	ldhl	sp,#27
    00000212 2A               [ 8]  452 	ld	a, (hl+)
    00000213 5F               [ 4]  453 	ld	e, a
    00000214 56               [ 8]  454 	ld	d, (hl)
    00000215 1A               [ 8]  455 	ld	a, (de)
    00000216 F8 1F            [12]  456 	ldhl	sp,	#31
    00000218 22               [ 8]  457 	ld	(hl+), a
    00000219 13               [ 8]  458 	inc	de
    0000021A 1A               [ 8]  459 	ld	a, (de)
                                    460 ;src/player.c:47: uint8_t cr = col_point(p->world_x + PLAYER_SIZE, ny + PLAYER_SIZE, map, map_w, map_h);
    0000021B 32               [ 8]  461 	ld	(hl-), a
    0000021C 2A               [ 8]  462 	ld	a, (hl+)
    0000021D 46               [ 8]  463 	ld	b, (hl)
    0000021E C6 0F            [ 8]  464 	add	a, #0x0f
    00000220 4F               [ 4]  465 	ld	c, a
    00000221 78               [ 4]  466 	ld	a, b
    00000222 CE 00            [ 8]  467 	adc	a, #0x00
    00000224 F8 23            [12]  468 	ldhl	sp,	#35
    00000226 71               [ 8]  469 	ld	(hl), c
    00000227 23               [ 8]  470 	inc	hl
    00000228 77               [ 8]  471 	ld	(hl), a
                                    472 ;src/player.c:44: if (step > 0) {
    00000229 F8 12            [12]  473 	ldhl	sp,	#18
    0000022B 7E               [ 8]  474 	ld	a, (hl)
    0000022C B7               [ 4]  475 	or	a, a
    0000022D CArAFr03         [16]  476 	jp	Z, 00136$
                                    477 ;src/player.c:46: uint8_t cl = col_point(p->world_x,              ny + PLAYER_SIZE, map, map_w, map_h);
    00000230 F8 21            [12]  478 	ldhl	sp,#33
    00000232 2A               [ 8]  479 	ld	a, (hl+)
    00000233 5F               [ 4]  480 	ld	e, a
    00000234 56               [ 8]  481 	ld	d, (hl)
    00000235 21 0F 00         [12]  482 	ld	hl, #0x000f
    00000238 19               [ 8]  483 	add	hl, de
    00000239 E5               [16]  484 	push	hl
    0000023A 7D               [ 4]  485 	ld	a, l
    0000023B F8 04            [12]  486 	ldhl	sp,	#4
    0000023D 77               [ 8]  487 	ld	(hl), a
    0000023E E1               [12]  488 	pop	hl
    0000023F 7C               [ 4]  489 	ld	a, h
    00000240 F8 03            [12]  490 	ldhl	sp,	#3
    00000242 32               [ 8]  491 	ld	(hl-), a
    00000243 7E               [ 8]  492 	ld	a, (hl)
    00000244 F8 21            [12]  493 	ldhl	sp,	#33
    00000246 77               [ 8]  494 	ld	(hl), a
    00000247 F8 03            [12]  495 	ldhl	sp,	#3
    00000249 7E               [ 8]  496 	ld	a, (hl)
    0000024A F8 22            [12]  497 	ldhl	sp,	#34
    0000024C 32               [ 8]  498 	ld	(hl-), a
    0000024D 2A               [ 8]  499 	ld	a, (hl+)
    0000024E 4F               [ 4]  500 	ld	c, a
    0000024F 46               [ 8]  501 	ld	b, (hl)
    00000250 60               [ 4]  502 	ld	h, b
    00000251 CB 7C            [ 8]  503 	bit	7, h
    00000253 28 03            [12]  504 	jr	Z, 00179$
    00000255 AF               [ 4]  505 	xor	a, a
    00000256 18 69            [12]  506 	jr	00184$
    00000258                        507 00179$:
                                    508 ;include/collision.h:44: uint16_t mx = world_px >> 4;
    00000258 F8 20            [12]  509 	ldhl	sp,	#32
    0000025A CB 3E            [16]  510 	srl	(hl)
    0000025C 2B               [ 8]  511 	dec	hl
    0000025D CB 1E            [16]  512 	rr	(hl)
    0000025F 23               [ 8]  513 	inc	hl
    00000260 CB 3E            [16]  514 	srl	(hl)
    00000262 2B               [ 8]  515 	dec	hl
    00000263 CB 1E            [16]  516 	rr	(hl)
    00000265 23               [ 8]  517 	inc	hl
    00000266 CB 3E            [16]  518 	srl	(hl)
    00000268 2B               [ 8]  519 	dec	hl
    00000269 CB 1E            [16]  520 	rr	(hl)
    0000026B 23               [ 8]  521 	inc	hl
    0000026C CB 3E            [16]  522 	srl	(hl)
    0000026E 2B               [ 8]  523 	dec	hl
    0000026F CB 1E            [16]  524 	rr	(hl)
                                    525 ;include/collision.h:45: uint16_t my = (uint16_t)world_py >> 4;
    00000271 59               [ 4]  526 	ld	e, c
    00000272 50               [ 4]  527 	ld	d, b
    00000273 CB 3A            [ 8]  528 	srl	d
    00000275 CB 1B            [ 8]  529 	rr	e
    00000277 CB 3A            [ 8]  530 	srl	d
    00000279 CB 1B            [ 8]  531 	rr	e
    0000027B CB 3A            [ 8]  532 	srl	d
    0000027D CB 1B            [ 8]  533 	rr	e
    0000027F CB 3A            [ 8]  534 	srl	d
    00000281 CB 1B            [ 8]  535 	rr	e
                                    536 ;src/player.c:46: uint8_t cl = col_point(p->world_x,              ny + PLAYER_SIZE, map, map_w, map_h);
    00000283 D5               [16]  537 	push	de
    00000284 F8 21            [12]  538 	ldhl	sp,	#33
    00000286 5D               [ 4]  539 	ld	e, l
    00000287 54               [ 4]  540 	ld	d, h
    00000288 F8 10            [12]  541 	ldhl	sp,	#16
    0000028A 1A               [ 8]  542 	ld	a, (de)
    0000028B 13               [ 8]  543 	inc	de
    0000028C 96               [ 8]  544 	sub	a, (hl)
    0000028D 23               [ 8]  545 	inc	hl
    0000028E 1A               [ 8]  546 	ld	a, (de)
    0000028F 9E               [ 8]  547 	sbc	a, (hl)
    00000290 D1               [12]  548 	pop	de
    00000291 30 09            [12]  549 	jr	NC, 00181$
    00000293 F8 0C            [12]  550 	ldhl	sp,	#12
    00000295 7B               [ 4]  551 	ld	a, e
    00000296 96               [ 8]  552 	sub	a, (hl)
    00000297 23               [ 8]  553 	inc	hl
    00000298 7A               [ 4]  554 	ld	a, d
    00000299 9E               [ 8]  555 	sbc	a, (hl)
    0000029A 38 04            [12]  556 	jr	C, 00182$
    0000029C                        557 00181$:
    0000029C 3E 07            [ 8]  558 	ld	a, #0x07
    0000029E 18 21            [12]  559 	jr	00184$
    000002A0                        560 00182$:
    000002A0 F8 0E            [12]  561 	ldhl	sp,	#14
    000002A2 2A               [ 8]  562 	ld	a, (hl+)
    000002A3 4F               [ 4]  563 	ld	c, a
    000002A4 46               [ 8]  564 	ld	b, (hl)
    000002A5 CDr00r00         [24]  565 	call	__mulint
    000002A8 F8 1F            [12]  566 	ldhl	sp,	#31
    000002AA 2A               [ 8]  567 	ld	a,	(hl+)
    000002AB 66               [ 8]  568 	ld	h, (hl)
    000002AC 6F               [ 4]  569 	ld	l, a
    000002AD 09               [ 8]  570 	add	hl, bc
    000002AE 4D               [ 4]  571 	ld	c, l
    000002AF 44               [ 4]  572 	ld	b, h
    000002B0 F8 10            [12]  573 	ldhl	sp,	#16
    000002B2 2A               [ 8]  574 	ld	a,	(hl+)
    000002B3 66               [ 8]  575 	ld	h, (hl)
    000002B4 6F               [ 4]  576 	ld	l, a
    000002B5 09               [ 8]  577 	add	hl, bc
    000002B6 4D               [ 4]  578 	ld	c, l
    000002B7 44               [ 4]  579 	ld	b, h
    000002B8 0A               [ 8]  580 	ld	a, (bc)
    000002B9 6F               [ 4]  581 	ld	l, a
    000002BA 26 00            [ 8]  582 	ld	h, #0x00
    000002BC 11r00r00         [12]  583 	ld	de, #_famidash_metatile_collision
    000002BF 19               [ 8]  584 	add	hl, de
    000002C0 7E               [ 8]  585 	ld	a, (hl)
    000002C1                        586 00184$:
    000002C1 F8 20            [12]  587 	ldhl	sp,	#32
                                    588 ;src/player.c:47: uint8_t cr = col_point(p->world_x + PLAYER_SIZE, ny + PLAYER_SIZE, map, map_w, map_h);
    000002C3 22               [ 8]  589 	ld	(hl+), a
    000002C4 2A               [ 8]  590 	ld	a, (hl+)
    000002C5 4F               [ 4]  591 	ld	c, a
    000002C6 46               [ 8]  592 	ld	b, (hl)
    000002C7 CB 78            [ 8]  593 	bit	7, b
    000002C9 28 06            [12]  594 	jr	Z, 00187$
    000002CB 23               [ 8]  595 	inc	hl
    000002CC 23               [ 8]  596 	inc	hl
    000002CD 36 00            [12]  597 	ld	(hl), #0x00
    000002CF 18 7C            [12]  598 	jr	00192$
    000002D1                        599 00187$:
                                    600 ;include/collision.h:44: uint16_t mx = world_px >> 4;
    000002D1 F8 24            [12]  601 	ldhl	sp,	#36
    000002D3 CB 3E            [16]  602 	srl	(hl)
    000002D5 2B               [ 8]  603 	dec	hl
    000002D6 CB 1E            [16]  604 	rr	(hl)
    000002D8 23               [ 8]  605 	inc	hl
    000002D9 CB 3E            [16]  606 	srl	(hl)
    000002DB 2B               [ 8]  607 	dec	hl
    000002DC CB 1E            [16]  608 	rr	(hl)
    000002DE 23               [ 8]  609 	inc	hl
    000002DF CB 3E            [16]  610 	srl	(hl)
    000002E1 2B               [ 8]  611 	dec	hl
    000002E2 CB 1E            [16]  612 	rr	(hl)
    000002E4 23               [ 8]  613 	inc	hl
    000002E5 CB 3E            [16]  614 	srl	(hl)
    000002E7 2B               [ 8]  615 	dec	hl
    000002E8 CB 1E            [16]  616 	rr	(hl)
                                    617 ;include/collision.h:45: uint16_t my = (uint16_t)world_py >> 4;
    000002EA 2B               [ 8]  618 	dec	hl
    000002EB CB 3E            [16]  619 	srl	(hl)
    000002ED 2B               [ 8]  620 	dec	hl
    000002EE CB 1E            [16]  621 	rr	(hl)
    000002F0 23               [ 8]  622 	inc	hl
    000002F1 CB 3E            [16]  623 	srl	(hl)
    000002F3 2B               [ 8]  624 	dec	hl
    000002F4 CB 1E            [16]  625 	rr	(hl)
    000002F6 23               [ 8]  626 	inc	hl
    000002F7 CB 3E            [16]  627 	srl	(hl)
    000002F9 2B               [ 8]  628 	dec	hl
    000002FA CB 1E            [16]  629 	rr	(hl)
    000002FC 23               [ 8]  630 	inc	hl
    000002FD CB 3E            [16]  631 	srl	(hl)
    000002FF 2B               [ 8]  632 	dec	hl
    00000300 CB 1E            [16]  633 	rr	(hl)
                                    634 ;src/player.c:47: uint8_t cr = col_point(p->world_x + PLAYER_SIZE, ny + PLAYER_SIZE, map, map_w, map_h);
    00000302 F8 23            [12]  635 	ldhl	sp,	#35
    00000304 5D               [ 4]  636 	ld	e, l
    00000305 54               [ 4]  637 	ld	d, h
    00000306 F8 0E            [12]  638 	ldhl	sp,	#14
    00000308 1A               [ 8]  639 	ld	a, (de)
    00000309 13               [ 8]  640 	inc	de
    0000030A 96               [ 8]  641 	sub	a, (hl)
    0000030B 23               [ 8]  642 	inc	hl
    0000030C 1A               [ 8]  643 	ld	a, (de)
    0000030D 9E               [ 8]  644 	sbc	a, (hl)
    0000030E 30 0E            [12]  645 	jr	NC, 00189$
    00000310 F8 21            [12]  646 	ldhl	sp,	#33
    00000312 5D               [ 4]  647 	ld	e, l
    00000313 54               [ 4]  648 	ld	d, h
    00000314 F8 0C            [12]  649 	ldhl	sp,	#12
    00000316 1A               [ 8]  650 	ld	a, (de)
    00000317 13               [ 8]  651 	inc	de
    00000318 96               [ 8]  652 	sub	a, (hl)
    00000319 23               [ 8]  653 	inc	hl
    0000031A 1A               [ 8]  654 	ld	a, (de)
    0000031B 9E               [ 8]  655 	sbc	a, (hl)
    0000031C 38 06            [12]  656 	jr	C, 00190$
    0000031E                        657 00189$:
    0000031E F8 24            [12]  658 	ldhl	sp,	#36
    00000320 36 07            [12]  659 	ld	(hl), #0x07
    00000322 18 29            [12]  660 	jr	00192$
    00000324                        661 00190$:
    00000324 F8 0E            [12]  662 	ldhl	sp,	#14
    00000326 2A               [ 8]  663 	ld	a, (hl+)
    00000327 4F               [ 4]  664 	ld	c, a
    00000328 46               [ 8]  665 	ld	b, (hl)
    00000329 F8 21            [12]  666 	ldhl	sp,	#33
    0000032B 2A               [ 8]  667 	ld	a, (hl+)
    0000032C 5F               [ 4]  668 	ld	e, a
    0000032D 56               [ 8]  669 	ld	d, (hl)
    0000032E CDr00r00         [24]  670 	call	__mulint
    00000331 F8 23            [12]  671 	ldhl	sp,	#35
    00000333 2A               [ 8]  672 	ld	a,	(hl+)
    00000334 66               [ 8]  673 	ld	h, (hl)
    00000335 6F               [ 4]  674 	ld	l, a
    00000336 09               [ 8]  675 	add	hl, bc
    00000337 4D               [ 4]  676 	ld	c, l
    00000338 44               [ 4]  677 	ld	b, h
    00000339 F8 10            [12]  678 	ldhl	sp,	#16
    0000033B 2A               [ 8]  679 	ld	a,	(hl+)
    0000033C 66               [ 8]  680 	ld	h, (hl)
    0000033D 6F               [ 4]  681 	ld	l, a
    0000033E 09               [ 8]  682 	add	hl, bc
    0000033F 4D               [ 4]  683 	ld	c, l
    00000340 44               [ 4]  684 	ld	b, h
    00000341 0A               [ 8]  685 	ld	a, (bc)
    00000342 6F               [ 4]  686 	ld	l, a
    00000343 26 00            [ 8]  687 	ld	h, #0x00
    00000345 11r00r00         [12]  688 	ld	de, #_famidash_metatile_collision
    00000348 19               [ 8]  689 	add	hl, de
    00000349 7E               [ 8]  690 	ld	a, (hl)
    0000034A F8 24            [12]  691 	ldhl	sp,	#36
    0000034C 77               [ 8]  692 	ld	(hl), a
    0000034D                        693 00192$:
                                    694 ;src/player.c:48: if (IS_SOLID(cl) || IS_SOLID(cr)) {
    0000034D F8 20            [12]  695 	ldhl	sp,	#32
    0000034F 7E               [ 8]  696 	ld	a, (hl)
    00000350 D6 07            [ 8]  697 	sub	a, #0x07
    00000352 28 32            [12]  698 	jr	Z, 00117$
    00000354 F8 20            [12]  699 	ldhl	sp,	#32
    00000356 7E               [ 8]  700 	ld	a, (hl)
    00000357 D6 09            [ 8]  701 	sub	a, #0x09
    00000359 28 2B            [12]  702 	jr	Z, 00117$
    0000035B F8 20            [12]  703 	ldhl	sp,	#32
    0000035D 7E               [ 8]  704 	ld	a, (hl)
    0000035E D6 05            [ 8]  705 	sub	a, #0x05
    00000360 28 24            [12]  706 	jr	Z, 00117$
    00000362 F8 20            [12]  707 	ldhl	sp,	#32
    00000364 7E               [ 8]  708 	ld	a, (hl)
    00000365 D6 06            [ 8]  709 	sub	a, #0x06
    00000367 28 1D            [12]  710 	jr	Z, 00117$
    00000369 F8 24            [12]  711 	ldhl	sp,	#36
    0000036B 7E               [ 8]  712 	ld	a, (hl)
    0000036C D6 07            [ 8]  713 	sub	a, #0x07
    0000036E 28 16            [12]  714 	jr	Z, 00117$
    00000370 F8 24            [12]  715 	ldhl	sp,	#36
    00000372 7E               [ 8]  716 	ld	a, (hl)
    00000373 D6 09            [ 8]  717 	sub	a, #0x09
    00000375 28 0F            [12]  718 	jr	Z, 00117$
    00000377 F8 24            [12]  719 	ldhl	sp,	#36
    00000379 7E               [ 8]  720 	ld	a, (hl)
    0000037A D6 05            [ 8]  721 	sub	a, #0x05
    0000037C 28 08            [12]  722 	jr	Z, 00117$
    0000037E F8 24            [12]  723 	ldhl	sp,	#36
    00000380 7E               [ 8]  724 	ld	a, (hl)
    00000381 D6 06            [ 8]  725 	sub	a, #0x06
    00000383 C2r3Cr05         [16]  726 	jp	NZ, 00139$
    00000386                        727 00117$:
                                    728 ;src/player.c:49: p->world_y   = ((ny + PLAYER_SIZE) & ~15) - PLAYER_SIZE - 1;
    00000386 F8 02            [12]  729 	ldhl	sp,	#2
    00000388 2A               [ 8]  730 	ld	a, (hl+)
    00000389 E6 F0            [ 8]  731 	and	a, #0xf0
    0000038B 4F               [ 4]  732 	ld	c, a
    0000038C 46               [ 8]  733 	ld	b, (hl)
    0000038D 79               [ 4]  734 	ld	a, c
    0000038E C6 F0            [ 8]  735 	add	a, #0xf0
    00000390 4F               [ 4]  736 	ld	c, a
    00000391 78               [ 4]  737 	ld	a, b
    00000392 CE FF            [ 8]  738 	adc	a, #0xff
    00000394 47               [ 4]  739 	ld	b, a
    00000395 F8 19            [12]  740 	ldhl	sp,	#25
    00000397 2A               [ 8]  741 	ld	a, (hl+)
    00000398 66               [ 8]  742 	ld	h, (hl)
    00000399 6F               [ 4]  743 	ld	l, a
    0000039A 79               [ 4]  744 	ld	a, c
    0000039B 22               [ 8]  745 	ld	(hl+), a
    0000039C 70               [ 8]  746 	ld	(hl), b
                                    747 ;src/player.c:50: p->vel_y     = 0;
    0000039D F8 08            [12]  748 	ldhl	sp,	#8
    0000039F 2A               [ 8]  749 	ld	a, (hl+)
    000003A0 66               [ 8]  750 	ld	h, (hl)
    000003A1 6F               [ 4]  751 	ld	l, a
    000003A2 AF               [ 4]  752 	xor	a, a
    000003A3 22               [ 8]  753 	ld	(hl+), a
    000003A4 77               [ 8]  754 	ld	(hl), a
                                    755 ;src/player.c:51: p->on_ground = 1;
    000003A5 F8 06            [12]  756 	ldhl	sp,	#6
    000003A7 2A               [ 8]  757 	ld	a, (hl+)
    000003A8 66               [ 8]  758 	ld	h, (hl)
    000003A9 6F               [ 4]  759 	ld	l, a
    000003AA 36 01            [12]  760 	ld	(hl), #0x01
                                    761 ;src/player.c:52: break;
    000003AC C3r4Er05         [16]  762 	jp	00140$
    000003AF                        763 00136$:
                                    764 ;src/player.c:56: uint8_t cl = col_point(p->world_x,              ny, map, map_w, map_h);
    000003AF F8 1F            [12]  765 	ldhl	sp,	#31
    000003B1 7E               [ 8]  766 	ld	a, (hl)
    000003B2 F8 02            [12]  767 	ldhl	sp,	#2
    000003B4 77               [ 8]  768 	ld	(hl), a
    000003B5 F8 20            [12]  769 	ldhl	sp,	#32
    000003B7 7E               [ 8]  770 	ld	a, (hl)
    000003B8 F8 03            [12]  771 	ldhl	sp,	#3
    000003BA 77               [ 8]  772 	ld	(hl), a
    000003BB F8 22            [12]  773 	ldhl	sp,	#34
    000003BD 7E               [ 8]  774 	ld	a, (hl)
    000003BE 07               [ 4]  775 	rlca
    000003BF E6 01            [ 8]  776 	and	a,#0x01
    000003C1 F8 1F            [12]  777 	ldhl	sp,	#31
                                    778 ;include/collision.h:45: uint16_t my = (uint16_t)world_py >> 4;
    000003C3 32               [ 8]  779 	ld	(hl-), a
    000003C4 2B               [ 8]  780 	dec	hl
    000003C5 2A               [ 8]  781 	ld	a, (hl+)
    000003C6 4F               [ 4]  782 	ld	c, a
    000003C7 2A               [ 8]  783 	ld	a, (hl+)
    000003C8 23               [ 8]  784 	inc	hl
    000003C9 47               [ 4]  785 	ld	b, a
    000003CA 79               [ 4]  786 	ld	a, c
    000003CB 22               [ 8]  787 	ld	(hl+), a
    000003CC 70               [ 8]  788 	ld	(hl), b
    000003CD CB 3E            [16]  789 	srl	(hl)
    000003CF 2B               [ 8]  790 	dec	hl
    000003D0 CB 1E            [16]  791 	rr	(hl)
    000003D2 23               [ 8]  792 	inc	hl
    000003D3 CB 3E            [16]  793 	srl	(hl)
    000003D5 2B               [ 8]  794 	dec	hl
    000003D6 CB 1E            [16]  795 	rr	(hl)
    000003D8 23               [ 8]  796 	inc	hl
    000003D9 CB 3E            [16]  797 	srl	(hl)
    000003DB 2B               [ 8]  798 	dec	hl
    000003DC CB 1E            [16]  799 	rr	(hl)
    000003DE 23               [ 8]  800 	inc	hl
    000003DF CB 3E            [16]  801 	srl	(hl)
    000003E1 2B               [ 8]  802 	dec	hl
    000003E2 CB 1E            [16]  803 	rr	(hl)
                                    804 ;src/player.c:56: uint8_t cl = col_point(p->world_x,              ny, map, map_w, map_h);
    000003E4 2B               [ 8]  805 	dec	hl
    000003E5 7E               [ 8]  806 	ld	a, (hl)
    000003E6 B7               [ 4]  807 	or	a, a
    000003E7 28 06            [12]  808 	jr	Z, 00195$
    000003E9 F8 22            [12]  809 	ldhl	sp,	#34
    000003EB 36 00            [12]  810 	ld	(hl), #0x00
    000003ED 18 75            [12]  811 	jr	00200$
    000003EF                        812 00195$:
                                    813 ;include/collision.h:44: uint16_t mx = world_px >> 4;
    000003EF F8 02            [12]  814 	ldhl	sp,	#2
    000003F1 3A               [ 8]  815 	ld	a, (hl-)
    000003F2 2B               [ 8]  816 	dec	hl
    000003F3 77               [ 8]  817 	ld	(hl), a
    000003F4 F8 03            [12]  818 	ldhl	sp,	#3
    000003F6 3A               [ 8]  819 	ld	a, (hl-)
    000003F7 2B               [ 8]  820 	dec	hl
    000003F8 77               [ 8]  821 	ld	(hl), a
    000003F9 CB 3E            [16]  822 	srl	(hl)
    000003FB 2B               [ 8]  823 	dec	hl
    000003FC CB 1E            [16]  824 	rr	(hl)
    000003FE 23               [ 8]  825 	inc	hl
    000003FF CB 3E            [16]  826 	srl	(hl)
    00000401 2B               [ 8]  827 	dec	hl
    00000402 CB 1E            [16]  828 	rr	(hl)
    00000404 23               [ 8]  829 	inc	hl
    00000405 CB 3E            [16]  830 	srl	(hl)
    00000407 2B               [ 8]  831 	dec	hl
    00000408 CB 1E            [16]  832 	rr	(hl)
    0000040A 23               [ 8]  833 	inc	hl
    0000040B CB 3E            [16]  834 	srl	(hl)
    0000040D 2B               [ 8]  835 	dec	hl
    0000040E CB 1E            [16]  836 	rr	(hl)
                                    837 ;include/collision.h:45: uint16_t my = (uint16_t)world_py >> 4;
    00000410 F8 20            [12]  838 	ldhl	sp,	#32
    00000412 7E               [ 8]  839 	ld	a, (hl)
    00000413 F8 02            [12]  840 	ldhl	sp,	#2
    00000415 77               [ 8]  841 	ld	(hl), a
    00000416 F8 21            [12]  842 	ldhl	sp,	#33
    00000418 7E               [ 8]  843 	ld	a, (hl)
    00000419 F8 03            [12]  844 	ldhl	sp,	#3
    0000041B 77               [ 8]  845 	ld	(hl), a
                                    846 ;src/player.c:56: uint8_t cl = col_point(p->world_x,              ny, map, map_w, map_h);
    0000041C F8 00            [12]  847 	ldhl	sp,	#0
    0000041E 5D               [ 4]  848 	ld	e, l
    0000041F 54               [ 4]  849 	ld	d, h
    00000420 F8 15            [12]  850 	ldhl	sp,	#21
    00000422 1A               [ 8]  851 	ld	a, (de)
    00000423 13               [ 8]  852 	inc	de
    00000424 96               [ 8]  853 	sub	a, (hl)
    00000425 23               [ 8]  854 	inc	hl
    00000426 1A               [ 8]  855 	ld	a, (de)
    00000427 9E               [ 8]  856 	sbc	a, (hl)
    00000428 30 0E            [12]  857 	jr	NC, 00197$
    0000042A F8 02            [12]  858 	ldhl	sp,	#2
    0000042C 5D               [ 4]  859 	ld	e, l
    0000042D 54               [ 4]  860 	ld	d, h
    0000042E F8 13            [12]  861 	ldhl	sp,	#19
    00000430 1A               [ 8]  862 	ld	a, (de)
    00000431 13               [ 8]  863 	inc	de
    00000432 96               [ 8]  864 	sub	a, (hl)
    00000433 23               [ 8]  865 	inc	hl
    00000434 1A               [ 8]  866 	ld	a, (de)
    00000435 9E               [ 8]  867 	sbc	a, (hl)
    00000436 38 06            [12]  868 	jr	C, 00198$
    00000438                        869 00197$:
    00000438 F8 22            [12]  870 	ldhl	sp,	#34
    0000043A 36 07            [12]  871 	ld	(hl), #0x07
    0000043C 18 26            [12]  872 	jr	00200$
    0000043E                        873 00198$:
    0000043E F8 15            [12]  874 	ldhl	sp,	#21
    00000440 2A               [ 8]  875 	ld	a, (hl+)
    00000441 4F               [ 4]  876 	ld	c, a
    00000442 46               [ 8]  877 	ld	b, (hl)
    00000443 F8 02            [12]  878 	ldhl	sp,	#2
    00000445 2A               [ 8]  879 	ld	a, (hl+)
    00000446 5F               [ 4]  880 	ld	e, a
    00000447 56               [ 8]  881 	ld	d, (hl)
    00000448 CDr00r00         [24]  882 	call	__mulint
    0000044B E1               [12]  883 	pop	hl
    0000044C E5               [16]  884 	push	hl
    0000044D 09               [ 8]  885 	add	hl, bc
    0000044E 4D               [ 4]  886 	ld	c, l
    0000044F 44               [ 4]  887 	ld	b, h
    00000450 F8 17            [12]  888 	ldhl	sp,	#23
    00000452 2A               [ 8]  889 	ld	a,	(hl+)
    00000453 66               [ 8]  890 	ld	h, (hl)
    00000454 6F               [ 4]  891 	ld	l, a
    00000455 09               [ 8]  892 	add	hl, bc
    00000456 4D               [ 4]  893 	ld	c, l
    00000457 44               [ 4]  894 	ld	b, h
    00000458 0A               [ 8]  895 	ld	a, (bc)
    00000459 6F               [ 4]  896 	ld	l, a
    0000045A 26 00            [ 8]  897 	ld	h, #0x00
    0000045C 11r00r00         [12]  898 	ld	de, #_famidash_metatile_collision
    0000045F 19               [ 8]  899 	add	hl, de
    00000460 7E               [ 8]  900 	ld	a, (hl)
    00000461 F8 22            [12]  901 	ldhl	sp,	#34
    00000463 77               [ 8]  902 	ld	(hl), a
    00000464                        903 00200$:
                                    904 ;src/player.c:57: uint8_t cr = col_point(p->world_x + PLAYER_SIZE, ny, map, map_w, map_h);
    00000464 F8 1F            [12]  905 	ldhl	sp,	#31
    00000466 7E               [ 8]  906 	ld	a, (hl)
    00000467 B7               [ 4]  907 	or	a, a
    00000468 28 06            [12]  908 	jr	Z, 00203$
    0000046A F8 24            [12]  909 	ldhl	sp,	#36
    0000046C 36 00            [12]  910 	ld	(hl), #0x00
    0000046E 18 64            [12]  911 	jr	00208$
    00000470                        912 00203$:
                                    913 ;include/collision.h:44: uint16_t mx = world_px >> 4;
    00000470 F8 24            [12]  914 	ldhl	sp,	#36
    00000472 CB 3E            [16]  915 	srl	(hl)
    00000474 2B               [ 8]  916 	dec	hl
    00000475 CB 1E            [16]  917 	rr	(hl)
    00000477 23               [ 8]  918 	inc	hl
    00000478 CB 3E            [16]  919 	srl	(hl)
    0000047A 2B               [ 8]  920 	dec	hl
    0000047B CB 1E            [16]  921 	rr	(hl)
    0000047D 23               [ 8]  922 	inc	hl
    0000047E CB 3E            [16]  923 	srl	(hl)
    00000480 2B               [ 8]  924 	dec	hl
    00000481 CB 1E            [16]  925 	rr	(hl)
    00000483 23               [ 8]  926 	inc	hl
    00000484 CB 3E            [16]  927 	srl	(hl)
    00000486 2B               [ 8]  928 	dec	hl
    00000487 CB 1E            [16]  929 	rr	(hl)
                                    930 ;include/collision.h:45: uint16_t my = (uint16_t)world_py >> 4;
                                    931 ;src/player.c:57: uint8_t cr = col_point(p->world_x + PLAYER_SIZE, ny, map, map_w, map_h);
    00000489 F8 23            [12]  932 	ldhl	sp,	#35
    0000048B 5D               [ 4]  933 	ld	e, l
    0000048C 54               [ 4]  934 	ld	d, h
    0000048D F8 15            [12]  935 	ldhl	sp,	#21
    0000048F 1A               [ 8]  936 	ld	a, (de)
    00000490 13               [ 8]  937 	inc	de
    00000491 96               [ 8]  938 	sub	a, (hl)
    00000492 23               [ 8]  939 	inc	hl
    00000493 1A               [ 8]  940 	ld	a, (de)
    00000494 9E               [ 8]  941 	sbc	a, (hl)
    00000495 30 0E            [12]  942 	jr	NC, 00205$
    00000497 F8 20            [12]  943 	ldhl	sp,	#32
    00000499 5D               [ 4]  944 	ld	e, l
    0000049A 54               [ 4]  945 	ld	d, h
    0000049B F8 13            [12]  946 	ldhl	sp,	#19
    0000049D 1A               [ 8]  947 	ld	a, (de)
    0000049E 13               [ 8]  948 	inc	de
    0000049F 96               [ 8]  949 	sub	a, (hl)
    000004A0 23               [ 8]  950 	inc	hl
    000004A1 1A               [ 8]  951 	ld	a, (de)
    000004A2 9E               [ 8]  952 	sbc	a, (hl)
    000004A3 38 06            [12]  953 	jr	C, 00206$
    000004A5                        954 00205$:
    000004A5 F8 24            [12]  955 	ldhl	sp,	#36
    000004A7 36 07            [12]  956 	ld	(hl), #0x07
    000004A9 18 29            [12]  957 	jr	00208$
    000004AB                        958 00206$:
    000004AB F8 15            [12]  959 	ldhl	sp,	#21
    000004AD 2A               [ 8]  960 	ld	a, (hl+)
    000004AE 4F               [ 4]  961 	ld	c, a
    000004AF 46               [ 8]  962 	ld	b, (hl)
    000004B0 F8 20            [12]  963 	ldhl	sp,	#32
    000004B2 2A               [ 8]  964 	ld	a, (hl+)
    000004B3 5F               [ 4]  965 	ld	e, a
    000004B4 56               [ 8]  966 	ld	d, (hl)
    000004B5 CDr00r00         [24]  967 	call	__mulint
    000004B8 F8 23            [12]  968 	ldhl	sp,	#35
    000004BA 2A               [ 8]  969 	ld	a,	(hl+)
    000004BB 66               [ 8]  970 	ld	h, (hl)
    000004BC 6F               [ 4]  971 	ld	l, a
    000004BD 09               [ 8]  972 	add	hl, bc
    000004BE 4D               [ 4]  973 	ld	c, l
    000004BF 44               [ 4]  974 	ld	b, h
    000004C0 F8 17            [12]  975 	ldhl	sp,	#23
    000004C2 2A               [ 8]  976 	ld	a,	(hl+)
    000004C3 66               [ 8]  977 	ld	h, (hl)
    000004C4 6F               [ 4]  978 	ld	l, a
    000004C5 09               [ 8]  979 	add	hl, bc
    000004C6 4D               [ 4]  980 	ld	c, l
    000004C7 44               [ 4]  981 	ld	b, h
    000004C8 0A               [ 8]  982 	ld	a, (bc)
    000004C9 6F               [ 4]  983 	ld	l, a
    000004CA 26 00            [ 8]  984 	ld	h, #0x00
    000004CC 11r00r00         [12]  985 	ld	de, #_famidash_metatile_collision
    000004CF 19               [ 8]  986 	add	hl, de
    000004D0 7E               [ 8]  987 	ld	a, (hl)
    000004D1 F8 24            [12]  988 	ldhl	sp,	#36
    000004D3 77               [ 8]  989 	ld	(hl), a
    000004D4                        990 00208$:
                                    991 ;src/player.c:58: if (IS_SOLID(cl) || IS_SOLID(cr)) {
    000004D4 F8 22            [12]  992 	ldhl	sp,	#34
    000004D6 7E               [ 8]  993 	ld	a, (hl)
    000004D7 D6 07            [ 8]  994 	sub	a, #0x07
    000004D9 28 31            [12]  995 	jr	Z, 00126$
    000004DB F8 22            [12]  996 	ldhl	sp,	#34
    000004DD 7E               [ 8]  997 	ld	a, (hl)
    000004DE D6 09            [ 8]  998 	sub	a, #0x09
    000004E0 28 2A            [12]  999 	jr	Z, 00126$
    000004E2 F8 22            [12] 1000 	ldhl	sp,	#34
    000004E4 7E               [ 8] 1001 	ld	a, (hl)
    000004E5 D6 05            [ 8] 1002 	sub	a, #0x05
    000004E7 28 23            [12] 1003 	jr	Z, 00126$
    000004E9 F8 22            [12] 1004 	ldhl	sp,	#34
    000004EB 7E               [ 8] 1005 	ld	a, (hl)
    000004EC D6 06            [ 8] 1006 	sub	a, #0x06
    000004EE 28 1C            [12] 1007 	jr	Z, 00126$
    000004F0 F8 24            [12] 1008 	ldhl	sp,	#36
    000004F2 7E               [ 8] 1009 	ld	a, (hl)
    000004F3 D6 07            [ 8] 1010 	sub	a, #0x07
    000004F5 28 15            [12] 1011 	jr	Z, 00126$
    000004F7 F8 24            [12] 1012 	ldhl	sp,	#36
    000004F9 7E               [ 8] 1013 	ld	a, (hl)
    000004FA D6 09            [ 8] 1014 	sub	a, #0x09
    000004FC 28 0E            [12] 1015 	jr	Z, 00126$
    000004FE F8 24            [12] 1016 	ldhl	sp,	#36
    00000500 7E               [ 8] 1017 	ld	a, (hl)
    00000501 D6 05            [ 8] 1018 	sub	a, #0x05
    00000503 28 07            [12] 1019 	jr	Z, 00126$
    00000505 F8 24            [12] 1020 	ldhl	sp,	#36
    00000507 7E               [ 8] 1021 	ld	a, (hl)
    00000508 D6 06            [ 8] 1022 	sub	a, #0x06
    0000050A 20 30            [12] 1023 	jr	NZ, 00139$
    0000050C                       1024 00126$:
                                   1025 ;src/player.c:59: p->world_y = ((ny >> 4) + 1) << 4;
    0000050C F8 1D            [12] 1026 	ldhl	sp,#29
    0000050E 2A               [ 8] 1027 	ld	a, (hl+)
    0000050F 4F               [ 4] 1028 	ld	c, a
    00000510 46               [ 8] 1029 	ld	b, (hl)
    00000511 CB 28            [ 8] 1030 	sra	b
    00000513 CB 19            [ 8] 1031 	rr	c
    00000515 CB 28            [ 8] 1032 	sra	b
    00000517 CB 19            [ 8] 1033 	rr	c
    00000519 CB 28            [ 8] 1034 	sra	b
    0000051B CB 19            [ 8] 1035 	rr	c
    0000051D CB 28            [ 8] 1036 	sra	b
    0000051F CB 19            [ 8] 1037 	rr	c
    00000521 69               [ 4] 1038 	ld	l, c
    00000522 60               [ 4] 1039 	ld	h, b
    00000523 23               [ 8] 1040 	inc	hl
    00000524 29               [ 8] 1041 	add	hl, hl
    00000525 29               [ 8] 1042 	add	hl, hl
    00000526 29               [ 8] 1043 	add	hl, hl
    00000527 29               [ 8] 1044 	add	hl, hl
    00000528 4D               [ 4] 1045 	ld	c, l
    00000529 44               [ 4] 1046 	ld	b, h
    0000052A F8 19            [12] 1047 	ldhl	sp,	#25
    0000052C 2A               [ 8] 1048 	ld	a, (hl+)
    0000052D 66               [ 8] 1049 	ld	h, (hl)
    0000052E 6F               [ 4] 1050 	ld	l, a
    0000052F 79               [ 4] 1051 	ld	a, c
    00000530 22               [ 8] 1052 	ld	(hl+), a
    00000531 70               [ 8] 1053 	ld	(hl), b
                                   1054 ;src/player.c:60: p->vel_y   = 0;
    00000532 F8 08            [12] 1055 	ldhl	sp,	#8
    00000534 2A               [ 8] 1056 	ld	a, (hl+)
    00000535 66               [ 8] 1057 	ld	h, (hl)
    00000536 6F               [ 4] 1058 	ld	l, a
    00000537 AF               [ 4] 1059 	xor	a, a
    00000538 22               [ 8] 1060 	ld	(hl+), a
    00000539 77               [ 8] 1061 	ld	(hl), a
                                   1062 ;src/player.c:61: break;
    0000053A 18 12            [12] 1063 	jr	00140$
    0000053C                       1064 00139$:
                                   1065 ;src/player.c:66: p->world_y = ny;
    0000053C F8 19            [12] 1066 	ldhl	sp,	#25
    0000053E 2A               [ 8] 1067 	ld	a, (hl+)
    0000053F 5F               [ 4] 1068 	ld	e, a
    00000540 56               [ 8] 1069 	ld	d, (hl)
    00000541 F8 1D            [12] 1070 	ldhl	sp,	#29
    00000543 2A               [ 8] 1071 	ld	a, (hl+)
    00000544 12               [ 8] 1072 	ld	(de), a
    00000545 13               [ 8] 1073 	inc	de
    00000546 7E               [ 8] 1074 	ld	a, (hl)
    00000547 12               [ 8] 1075 	ld	(de), a
                                   1076 ;src/player.c:40: for (int8_t i = 0; i < steps; i++) {
    00000548 F8 28            [12] 1077 	ldhl	sp,	#40
    0000054A 34               [12] 1078 	inc	(hl)
    0000054B C3rA6r01         [16] 1079 	jp	00387$
    0000054E                       1080 00140$:
                                   1081 ;src/player.c:70: if (!player_noclip) {
    0000054E FAr00r00         [16] 1082 	ld	a, (#_player_noclip)
    00000551 B7               [ 4] 1083 	or	a, a
    00000552 C2rF8r0D         [16] 1084 	jp	NZ, 00163$
                                   1085 ;src/player.c:71: uint16_t hx1 = p->world_x + PLAYER_HBOX;
    00000555 F8 1B            [12] 1086 	ldhl	sp,#27
    00000557 2A               [ 8] 1087 	ld	a, (hl+)
    00000558 5F               [ 4] 1088 	ld	e, a
    00000559 56               [ 8] 1089 	ld	d, (hl)
    0000055A 1A               [ 8] 1090 	ld	a, (de)
    0000055B 4F               [ 4] 1091 	ld	c, a
    0000055C 13               [ 8] 1092 	inc	de
    0000055D 1A               [ 8] 1093 	ld	a, (de)
    0000055E 47               [ 4] 1094 	ld	b, a
    0000055F 21 04 00         [12] 1095 	ld	hl, #0x0004
    00000562 09               [ 8] 1096 	add	hl, bc
    00000563 5D               [ 4] 1097 	ld	e, l
    00000564 7C               [ 4] 1098 	ld	a, h
    00000565 F8 23            [12] 1099 	ldhl	sp,	#35
    00000567 73               [ 8] 1100 	ld	(hl), e
    00000568 23               [ 8] 1101 	inc	hl
    00000569 77               [ 8] 1102 	ld	(hl), a
                                   1103 ;src/player.c:72: uint16_t hx2 = p->world_x + PLAYER_SIZE - PLAYER_HBOX;
    0000056A 21 0B 00         [12] 1104 	ld	hl, #0x000b
    0000056D 09               [ 8] 1105 	add	hl, bc
    0000056E 4D               [ 4] 1106 	ld	c, l
    0000056F 7C               [ 4] 1107 	ld	a, h
    00000570 F8 08            [12] 1108 	ldhl	sp,	#8
    00000572 71               [ 8] 1109 	ld	(hl), c
    00000573 23               [ 8] 1110 	inc	hl
    00000574 77               [ 8] 1111 	ld	(hl), a
                                   1112 ;src/player.c:73: int16_t  hy1 = p->world_y + PLAYER_HBOX;
    00000575 F8 19            [12] 1113 	ldhl	sp,#25
    00000577 2A               [ 8] 1114 	ld	a, (hl+)
    00000578 5F               [ 4] 1115 	ld	e, a
    00000579 56               [ 8] 1116 	ld	d, (hl)
    0000057A 1A               [ 8] 1117 	ld	a, (de)
    0000057B 4F               [ 4] 1118 	ld	c, a
    0000057C 13               [ 8] 1119 	inc	de
    0000057D 1A               [ 8] 1120 	ld	a, (de)
    0000057E 59               [ 4] 1121 	ld	e, c
    0000057F 57               [ 4] 1122 	ld	d, a
    00000580 21 04 00         [12] 1123 	ld	hl, #0x0004
    00000583 19               [ 8] 1124 	add	hl, de
    00000584 4D               [ 4] 1125 	ld	c, l
    00000585 44               [ 4] 1126 	ld	b, h
                                   1127 ;src/player.c:74: int16_t  hy2 = p->world_y + PLAYER_SIZE - PLAYER_HBOX;
    00000586 21 0B 00         [12] 1128 	ld	hl, #0x000b
    00000589 19               [ 8] 1129 	add	hl, de
    0000058A 5D               [ 4] 1130 	ld	e, l
    0000058B 7C               [ 4] 1131 	ld	a, h
    0000058C F8 0A            [12] 1132 	ldhl	sp,	#10
    0000058E 73               [ 8] 1133 	ld	(hl), e
    0000058F 23               [ 8] 1134 	inc	hl
                                   1135 ;src/player.c:76: if (IS_HAZARD(col_point(hx1, hy1, map, map_w, map_h)) ||
    00000590 22               [ 8] 1136 	ld	(hl+), a
    00000591 7E               [ 8] 1137 	ld	a, (hl)
    00000592 F8 13            [12] 1138 	ldhl	sp,	#19
    00000594 77               [ 8] 1139 	ld	(hl), a
    00000595 F8 0D            [12] 1140 	ldhl	sp,	#13
    00000597 7E               [ 8] 1141 	ld	a, (hl)
    00000598 F8 14            [12] 1142 	ldhl	sp,	#20
    0000059A 77               [ 8] 1143 	ld	(hl), a
    0000059B F8 0E            [12] 1144 	ldhl	sp,	#14
    0000059D 7E               [ 8] 1145 	ld	a, (hl)
    0000059E F8 15            [12] 1146 	ldhl	sp,	#21
    000005A0 77               [ 8] 1147 	ld	(hl), a
    000005A1 F8 0F            [12] 1148 	ldhl	sp,	#15
    000005A3 7E               [ 8] 1149 	ld	a, (hl)
    000005A4 F8 16            [12] 1150 	ldhl	sp,	#22
    000005A6 77               [ 8] 1151 	ld	(hl), a
    000005A7 F8 10            [12] 1152 	ldhl	sp,	#16
    000005A9 7E               [ 8] 1153 	ld	a, (hl)
    000005AA F8 17            [12] 1154 	ldhl	sp,	#23
    000005AC 77               [ 8] 1155 	ld	(hl), a
    000005AD F8 11            [12] 1156 	ldhl	sp,	#17
    000005AF 7E               [ 8] 1157 	ld	a, (hl)
    000005B0 F8 18            [12] 1158 	ldhl	sp,	#24
    000005B2 77               [ 8] 1159 	ld	(hl), a
                                   1160 ;include/collision.h:43: if (world_py < 0) return COL_NONE;
    000005B3 78               [ 4] 1161 	ld	a, b
    000005B4 07               [ 4] 1162 	rlca
    000005B5 E6 01            [ 8] 1163 	and	a,#0x01
    000005B7 F8 28            [12] 1164 	ldhl	sp,	#40
    000005B9 77               [ 8] 1165 	ld	(hl), a
                                   1166 ;include/collision.h:44: uint16_t mx = world_px >> 4;
    000005BA F8 23            [12] 1167 	ldhl	sp,	#35
    000005BC 7E               [ 8] 1168 	ld	a, (hl)
    000005BD F8 1D            [12] 1169 	ldhl	sp,	#29
    000005BF 77               [ 8] 1170 	ld	(hl), a
    000005C0 F8 24            [12] 1171 	ldhl	sp,	#36
    000005C2 7E               [ 8] 1172 	ld	a, (hl)
    000005C3 F8 1E            [12] 1173 	ldhl	sp,	#30
    000005C5 77               [ 8] 1174 	ld	(hl), a
    000005C6 CB 3E            [16] 1175 	srl	(hl)
    000005C8 2B               [ 8] 1176 	dec	hl
    000005C9 CB 1E            [16] 1177 	rr	(hl)
    000005CB 23               [ 8] 1178 	inc	hl
    000005CC CB 3E            [16] 1179 	srl	(hl)
    000005CE 2B               [ 8] 1180 	dec	hl
    000005CF CB 1E            [16] 1181 	rr	(hl)
    000005D1 23               [ 8] 1182 	inc	hl
    000005D2 CB 3E            [16] 1183 	srl	(hl)
    000005D4 2B               [ 8] 1184 	dec	hl
    000005D5 CB 1E            [16] 1185 	rr	(hl)
    000005D7 23               [ 8] 1186 	inc	hl
    000005D8 CB 3E            [16] 1187 	srl	(hl)
    000005DA 2B               [ 8] 1188 	dec	hl
    000005DB CB 1E            [16] 1189 	rr	(hl)
                                   1190 ;include/collision.h:45: uint16_t my = (uint16_t)world_py >> 4;
    000005DD 23               [ 8] 1191 	inc	hl
    000005DE 23               [ 8] 1192 	inc	hl
    000005DF 79               [ 4] 1193 	ld	a, c
    000005E0 22               [ 8] 1194 	ld	(hl+), a
    000005E1 70               [ 8] 1195 	ld	(hl), b
    000005E2 CB 3E            [16] 1196 	srl	(hl)
    000005E4 2B               [ 8] 1197 	dec	hl
    000005E5 CB 1E            [16] 1198 	rr	(hl)
    000005E7 23               [ 8] 1199 	inc	hl
    000005E8 CB 3E            [16] 1200 	srl	(hl)
    000005EA 2B               [ 8] 1201 	dec	hl
    000005EB CB 1E            [16] 1202 	rr	(hl)
    000005ED 23               [ 8] 1203 	inc	hl
    000005EE CB 3E            [16] 1204 	srl	(hl)
    000005F0 2B               [ 8] 1205 	dec	hl
    000005F1 CB 1E            [16] 1206 	rr	(hl)
    000005F3 23               [ 8] 1207 	inc	hl
    000005F4 CB 3E            [16] 1208 	srl	(hl)
    000005F6 2B               [ 8] 1209 	dec	hl
    000005F7 CB 1E            [16] 1210 	rr	(hl)
                                   1211 ;include/collision.h:43: if (world_py < 0) return COL_NONE;
    000005F9 F8 28            [12] 1212 	ldhl	sp,	#40
    000005FB 7E               [ 8] 1213 	ld	a, (hl)
    000005FC B7               [ 4] 1214 	or	a, a
    000005FD 28 04            [12] 1215 	jr	Z, 00211$
    000005FF 0E 00            [ 8] 1216 	ld	c, #0x00
    00000601 18 4F            [12] 1217 	jr	00216$
    00000603                       1218 00211$:
                                   1219 ;include/collision.h:44: uint16_t mx = world_px >> 4;
    00000603 F8 1D            [12] 1220 	ldhl	sp,	#29
    00000605 7E               [ 8] 1221 	ld	a, (hl)
    00000606 F8 23            [12] 1222 	ldhl	sp,	#35
    00000608 77               [ 8] 1223 	ld	(hl), a
    00000609 F8 1E            [12] 1224 	ldhl	sp,	#30
    0000060B 7E               [ 8] 1225 	ld	a, (hl)
    0000060C F8 24            [12] 1226 	ldhl	sp,	#36
    0000060E 77               [ 8] 1227 	ld	(hl), a
                                   1228 ;include/collision.h:45: uint16_t my = (uint16_t)world_py >> 4;
    0000060F F8 1F            [12] 1229 	ldhl	sp,	#31
    00000611 2A               [ 8] 1230 	ld	a, (hl+)
    00000612 5F               [ 4] 1231 	ld	e, a
    00000613 56               [ 8] 1232 	ld	d, (hl)
                                   1233 ;include/collision.h:47: if (mx >= map_w || my >= map_h) return COL_ALL;
    00000614 D5               [16] 1234 	push	de
    00000615 F8 25            [12] 1235 	ldhl	sp,	#37
    00000617 5D               [ 4] 1236 	ld	e, l
    00000618 54               [ 4] 1237 	ld	d, h
    00000619 F8 10            [12] 1238 	ldhl	sp,	#16
    0000061B 1A               [ 8] 1239 	ld	a, (de)
    0000061C 13               [ 8] 1240 	inc	de
    0000061D 96               [ 8] 1241 	sub	a, (hl)
    0000061E 23               [ 8] 1242 	inc	hl
    0000061F 1A               [ 8] 1243 	ld	a, (de)
    00000620 9E               [ 8] 1244 	sbc	a, (hl)
    00000621 D1               [12] 1245 	pop	de
    00000622 30 09            [12] 1246 	jr	NC, 00213$
    00000624 F8 0C            [12] 1247 	ldhl	sp,	#12
    00000626 7B               [ 4] 1248 	ld	a, e
    00000627 96               [ 8] 1249 	sub	a, (hl)
    00000628 23               [ 8] 1250 	inc	hl
    00000629 7A               [ 4] 1251 	ld	a, d
    0000062A 9E               [ 8] 1252 	sbc	a, (hl)
    0000062B 38 04            [12] 1253 	jr	C, 00214$
    0000062D                       1254 00213$:
    0000062D 0E 07            [ 8] 1255 	ld	c, #0x07
    0000062F 18 21            [12] 1256 	jr	00216$
    00000631                       1257 00214$:
                                   1258 ;include/collision.h:48: return col_of(map[(uint16_t)my * map_w + mx]);
    00000631 F8 0E            [12] 1259 	ldhl	sp,	#14
    00000633 2A               [ 8] 1260 	ld	a, (hl+)
    00000634 4F               [ 4] 1261 	ld	c, a
    00000635 46               [ 8] 1262 	ld	b, (hl)
    00000636 CDr00r00         [24] 1263 	call	__mulint
    00000639 F8 23            [12] 1264 	ldhl	sp,	#35
    0000063B 2A               [ 8] 1265 	ld	a,	(hl+)
    0000063C 66               [ 8] 1266 	ld	h, (hl)
    0000063D 6F               [ 4] 1267 	ld	l, a
    0000063E 09               [ 8] 1268 	add	hl, bc
    0000063F 4D               [ 4] 1269 	ld	c, l
    00000640 44               [ 4] 1270 	ld	b, h
    00000641 F8 10            [12] 1271 	ldhl	sp,	#16
    00000643 2A               [ 8] 1272 	ld	a,	(hl+)
    00000644 66               [ 8] 1273 	ld	h, (hl)
    00000645 6F               [ 4] 1274 	ld	l, a
    00000646 09               [ 8] 1275 	add	hl, bc
    00000647 4D               [ 4] 1276 	ld	c, l
    00000648 44               [ 4] 1277 	ld	b, h
    00000649 0A               [ 8] 1278 	ld	a, (bc)
    0000064A 6F               [ 4] 1279 	ld	l, a
                                   1280 ;include/collision.h:32: return famidash_metatile_collision[tile_id];
    0000064B 26 00            [ 8] 1281 	ld	h, #0x00
    0000064D 11r00r00         [12] 1282 	ld	de, #_famidash_metatile_collision
    00000650 19               [ 8] 1283 	add	hl, de
    00000651 4E               [ 8] 1284 	ld	c, (hl)
                                   1285 ;include/player.h:41: return col_at(px, py, map, map_w, map_h);
    00000652                       1286 00216$:
                                   1287 ;src/player.c:76: if (IS_HAZARD(col_point(hx1, hy1, map, map_w, map_h)) ||
    00000652 79               [ 4] 1288 	ld	a, c
    00000653 D6 08            [ 8] 1289 	sub	a, #0x08
    00000655 CArEDr0D         [16] 1290 	jp	Z, 00141$
                                   1291 ;include/collision.h:43: if (world_py < 0) return COL_NONE;
    00000658 F8 28            [12] 1292 	ldhl	sp,	#40
    0000065A 7E               [ 8] 1293 	ld	a, (hl)
    0000065B B7               [ 4] 1294 	or	a, a
    0000065C 28 04            [12] 1295 	jr	Z, 00219$
    0000065E 0E 00            [ 8] 1296 	ld	c, #0x00
    00000660 18 4F            [12] 1297 	jr	00224$
    00000662                       1298 00219$:
                                   1299 ;include/collision.h:44: uint16_t mx = world_px >> 4;
    00000662 F8 1D            [12] 1300 	ldhl	sp,	#29
    00000664 7E               [ 8] 1301 	ld	a, (hl)
    00000665 F8 23            [12] 1302 	ldhl	sp,	#35
    00000667 77               [ 8] 1303 	ld	(hl), a
    00000668 F8 1E            [12] 1304 	ldhl	sp,	#30
    0000066A 7E               [ 8] 1305 	ld	a, (hl)
    0000066B F8 24            [12] 1306 	ldhl	sp,	#36
    0000066D 77               [ 8] 1307 	ld	(hl), a
                                   1308 ;include/collision.h:45: uint16_t my = (uint16_t)world_py >> 4;
    0000066E F8 1F            [12] 1309 	ldhl	sp,	#31
    00000670 2A               [ 8] 1310 	ld	a, (hl+)
    00000671 5F               [ 4] 1311 	ld	e, a
    00000672 56               [ 8] 1312 	ld	d, (hl)
                                   1313 ;include/collision.h:47: if (mx >= map_w || my >= map_h) return COL_ALL;
    00000673 D5               [16] 1314 	push	de
    00000674 F8 25            [12] 1315 	ldhl	sp,	#37
    00000676 5D               [ 4] 1316 	ld	e, l
    00000677 54               [ 4] 1317 	ld	d, h
    00000678 F8 17            [12] 1318 	ldhl	sp,	#23
    0000067A 1A               [ 8] 1319 	ld	a, (de)
    0000067B 13               [ 8] 1320 	inc	de
    0000067C 96               [ 8] 1321 	sub	a, (hl)
    0000067D 23               [ 8] 1322 	inc	hl
    0000067E 1A               [ 8] 1323 	ld	a, (de)
    0000067F 9E               [ 8] 1324 	sbc	a, (hl)
    00000680 D1               [12] 1325 	pop	de
    00000681 30 09            [12] 1326 	jr	NC, 00221$
    00000683 F8 13            [12] 1327 	ldhl	sp,	#19
    00000685 7B               [ 4] 1328 	ld	a, e
    00000686 96               [ 8] 1329 	sub	a, (hl)
    00000687 23               [ 8] 1330 	inc	hl
    00000688 7A               [ 4] 1331 	ld	a, d
    00000689 9E               [ 8] 1332 	sbc	a, (hl)
    0000068A 38 04            [12] 1333 	jr	C, 00222$
    0000068C                       1334 00221$:
    0000068C 0E 07            [ 8] 1335 	ld	c, #0x07
    0000068E 18 21            [12] 1336 	jr	00224$
    00000690                       1337 00222$:
                                   1338 ;include/collision.h:48: return col_of(map[(uint16_t)my * map_w + mx]);
    00000690 F8 15            [12] 1339 	ldhl	sp,	#21
    00000692 2A               [ 8] 1340 	ld	a, (hl+)
    00000693 4F               [ 4] 1341 	ld	c, a
    00000694 46               [ 8] 1342 	ld	b, (hl)
    00000695 CDr00r00         [24] 1343 	call	__mulint
    00000698 F8 23            [12] 1344 	ldhl	sp,	#35
    0000069A 2A               [ 8] 1345 	ld	a,	(hl+)
    0000069B 66               [ 8] 1346 	ld	h, (hl)
    0000069C 6F               [ 4] 1347 	ld	l, a
    0000069D 09               [ 8] 1348 	add	hl, bc
    0000069E 4D               [ 4] 1349 	ld	c, l
    0000069F 44               [ 4] 1350 	ld	b, h
    000006A0 F8 17            [12] 1351 	ldhl	sp,	#23
    000006A2 2A               [ 8] 1352 	ld	a,	(hl+)
    000006A3 66               [ 8] 1353 	ld	h, (hl)
    000006A4 6F               [ 4] 1354 	ld	l, a
    000006A5 09               [ 8] 1355 	add	hl, bc
    000006A6 4D               [ 4] 1356 	ld	c, l
    000006A7 44               [ 4] 1357 	ld	b, h
    000006A8 0A               [ 8] 1358 	ld	a, (bc)
                                   1359 ;include/collision.h:32: return famidash_metatile_collision[tile_id];
    000006A9 6F               [ 4] 1360 	ld	l, a
    000006AA 26 00            [ 8] 1361 	ld	h, #0x00
    000006AC 11r00r00         [12] 1362 	ld	de, #_famidash_metatile_collision
    000006AF 19               [ 8] 1363 	add	hl, de
    000006B0 4E               [ 8] 1364 	ld	c, (hl)
                                   1365 ;include/player.h:41: return col_at(px, py, map, map_w, map_h);
    000006B1                       1366 00224$:
                                   1367 ;src/player.c:76: if (IS_HAZARD(col_point(hx1, hy1, map, map_w, map_h)) ||
    000006B1 79               [ 4] 1368 	ld	a, c
    000006B2 D6 03            [ 8] 1369 	sub	a, #0x03
    000006B4 CArEDr0D         [16] 1370 	jp	Z, 00141$
                                   1371 ;include/collision.h:43: if (world_py < 0) return COL_NONE;
    000006B7 F8 28            [12] 1372 	ldhl	sp,	#40
    000006B9 7E               [ 8] 1373 	ld	a, (hl)
    000006BA B7               [ 4] 1374 	or	a, a
    000006BB 28 04            [12] 1375 	jr	Z, 00227$
    000006BD 0E 00            [ 8] 1376 	ld	c, #0x00
    000006BF 18 4F            [12] 1377 	jr	00232$
    000006C1                       1378 00227$:
                                   1379 ;include/collision.h:44: uint16_t mx = world_px >> 4;
    000006C1 F8 1D            [12] 1380 	ldhl	sp,	#29
    000006C3 7E               [ 8] 1381 	ld	a, (hl)
    000006C4 F8 23            [12] 1382 	ldhl	sp,	#35
    000006C6 77               [ 8] 1383 	ld	(hl), a
    000006C7 F8 1E            [12] 1384 	ldhl	sp,	#30
    000006C9 7E               [ 8] 1385 	ld	a, (hl)
    000006CA F8 24            [12] 1386 	ldhl	sp,	#36
    000006CC 77               [ 8] 1387 	ld	(hl), a
                                   1388 ;include/collision.h:45: uint16_t my = (uint16_t)world_py >> 4;
    000006CD F8 1F            [12] 1389 	ldhl	sp,	#31
    000006CF 2A               [ 8] 1390 	ld	a, (hl+)
    000006D0 5F               [ 4] 1391 	ld	e, a
    000006D1 56               [ 8] 1392 	ld	d, (hl)
                                   1393 ;include/collision.h:47: if (mx >= map_w || my >= map_h) return COL_ALL;
    000006D2 D5               [16] 1394 	push	de
    000006D3 F8 25            [12] 1395 	ldhl	sp,	#37
    000006D5 5D               [ 4] 1396 	ld	e, l
    000006D6 54               [ 4] 1397 	ld	d, h
    000006D7 F8 17            [12] 1398 	ldhl	sp,	#23
    000006D9 1A               [ 8] 1399 	ld	a, (de)
    000006DA 13               [ 8] 1400 	inc	de
    000006DB 96               [ 8] 1401 	sub	a, (hl)
    000006DC 23               [ 8] 1402 	inc	hl
    000006DD 1A               [ 8] 1403 	ld	a, (de)
    000006DE 9E               [ 8] 1404 	sbc	a, (hl)
    000006DF D1               [12] 1405 	pop	de
    000006E0 30 09            [12] 1406 	jr	NC, 00229$
    000006E2 F8 13            [12] 1407 	ldhl	sp,	#19
    000006E4 7B               [ 4] 1408 	ld	a, e
    000006E5 96               [ 8] 1409 	sub	a, (hl)
    000006E6 23               [ 8] 1410 	inc	hl
    000006E7 7A               [ 4] 1411 	ld	a, d
    000006E8 9E               [ 8] 1412 	sbc	a, (hl)
    000006E9 38 04            [12] 1413 	jr	C, 00230$
    000006EB                       1414 00229$:
    000006EB 0E 07            [ 8] 1415 	ld	c, #0x07
    000006ED 18 21            [12] 1416 	jr	00232$
    000006EF                       1417 00230$:
                                   1418 ;include/collision.h:48: return col_of(map[(uint16_t)my * map_w + mx]);
    000006EF F8 15            [12] 1419 	ldhl	sp,	#21
    000006F1 2A               [ 8] 1420 	ld	a, (hl+)
    000006F2 4F               [ 4] 1421 	ld	c, a
    000006F3 46               [ 8] 1422 	ld	b, (hl)
    000006F4 CDr00r00         [24] 1423 	call	__mulint
    000006F7 F8 23            [12] 1424 	ldhl	sp,	#35
    000006F9 2A               [ 8] 1425 	ld	a,	(hl+)
    000006FA 66               [ 8] 1426 	ld	h, (hl)
    000006FB 6F               [ 4] 1427 	ld	l, a
    000006FC 09               [ 8] 1428 	add	hl, bc
    000006FD 4D               [ 4] 1429 	ld	c, l
    000006FE 44               [ 4] 1430 	ld	b, h
    000006FF F8 17            [12] 1431 	ldhl	sp,	#23
    00000701 2A               [ 8] 1432 	ld	a,	(hl+)
    00000702 66               [ 8] 1433 	ld	h, (hl)
    00000703 6F               [ 4] 1434 	ld	l, a
    00000704 09               [ 8] 1435 	add	hl, bc
    00000705 4D               [ 4] 1436 	ld	c, l
    00000706 44               [ 4] 1437 	ld	b, h
    00000707 0A               [ 8] 1438 	ld	a, (bc)
    00000708 6F               [ 4] 1439 	ld	l, a
                                   1440 ;include/collision.h:32: return famidash_metatile_collision[tile_id];
    00000709 26 00            [ 8] 1441 	ld	h, #0x00
    0000070B 11r00r00         [12] 1442 	ld	de, #_famidash_metatile_collision
    0000070E 19               [ 8] 1443 	add	hl, de
    0000070F 4E               [ 8] 1444 	ld	c, (hl)
                                   1445 ;include/player.h:41: return col_at(px, py, map, map_w, map_h);
    00000710                       1446 00232$:
                                   1447 ;src/player.c:76: if (IS_HAZARD(col_point(hx1, hy1, map, map_w, map_h)) ||
    00000710 79               [ 4] 1448 	ld	a, c
    00000711 D6 04            [ 8] 1449 	sub	a, #0x04
    00000713 CArEDr0D         [16] 1450 	jp	Z, 00141$
                                   1451 ;include/collision.h:43: if (world_py < 0) return COL_NONE;
    00000716 F8 28            [12] 1452 	ldhl	sp,	#40
    00000718 7E               [ 8] 1453 	ld	a, (hl)
    00000719 B7               [ 4] 1454 	or	a, a
    0000071A 28 04            [12] 1455 	jr	Z, 00235$
    0000071C 0E 00            [ 8] 1456 	ld	c, #0x00
    0000071E 18 4F            [12] 1457 	jr	00240$
    00000720                       1458 00235$:
                                   1459 ;include/collision.h:44: uint16_t mx = world_px >> 4;
    00000720 F8 1D            [12] 1460 	ldhl	sp,	#29
    00000722 7E               [ 8] 1461 	ld	a, (hl)
    00000723 F8 23            [12] 1462 	ldhl	sp,	#35
    00000725 77               [ 8] 1463 	ld	(hl), a
    00000726 F8 1E            [12] 1464 	ldhl	sp,	#30
    00000728 7E               [ 8] 1465 	ld	a, (hl)
    00000729 F8 24            [12] 1466 	ldhl	sp,	#36
    0000072B 77               [ 8] 1467 	ld	(hl), a
                                   1468 ;include/collision.h:45: uint16_t my = (uint16_t)world_py >> 4;
    0000072C F8 1F            [12] 1469 	ldhl	sp,	#31
    0000072E 2A               [ 8] 1470 	ld	a, (hl+)
    0000072F 5F               [ 4] 1471 	ld	e, a
    00000730 56               [ 8] 1472 	ld	d, (hl)
                                   1473 ;include/collision.h:47: if (mx >= map_w || my >= map_h) return COL_ALL;
    00000731 D5               [16] 1474 	push	de
    00000732 F8 25            [12] 1475 	ldhl	sp,	#37
    00000734 5D               [ 4] 1476 	ld	e, l
    00000735 54               [ 4] 1477 	ld	d, h
    00000736 F8 17            [12] 1478 	ldhl	sp,	#23
    00000738 1A               [ 8] 1479 	ld	a, (de)
    00000739 13               [ 8] 1480 	inc	de
    0000073A 96               [ 8] 1481 	sub	a, (hl)
    0000073B 23               [ 8] 1482 	inc	hl
    0000073C 1A               [ 8] 1483 	ld	a, (de)
    0000073D 9E               [ 8] 1484 	sbc	a, (hl)
    0000073E D1               [12] 1485 	pop	de
    0000073F 30 09            [12] 1486 	jr	NC, 00237$
    00000741 F8 13            [12] 1487 	ldhl	sp,	#19
    00000743 7B               [ 4] 1488 	ld	a, e
    00000744 96               [ 8] 1489 	sub	a, (hl)
    00000745 23               [ 8] 1490 	inc	hl
    00000746 7A               [ 4] 1491 	ld	a, d
    00000747 9E               [ 8] 1492 	sbc	a, (hl)
    00000748 38 04            [12] 1493 	jr	C, 00238$
    0000074A                       1494 00237$:
    0000074A 0E 07            [ 8] 1495 	ld	c, #0x07
    0000074C 18 21            [12] 1496 	jr	00240$
    0000074E                       1497 00238$:
                                   1498 ;include/collision.h:48: return col_of(map[(uint16_t)my * map_w + mx]);
    0000074E F8 15            [12] 1499 	ldhl	sp,	#21
    00000750 2A               [ 8] 1500 	ld	a, (hl+)
    00000751 4F               [ 4] 1501 	ld	c, a
    00000752 46               [ 8] 1502 	ld	b, (hl)
    00000753 CDr00r00         [24] 1503 	call	__mulint
    00000756 F8 23            [12] 1504 	ldhl	sp,	#35
    00000758 2A               [ 8] 1505 	ld	a,	(hl+)
    00000759 66               [ 8] 1506 	ld	h, (hl)
    0000075A 6F               [ 4] 1507 	ld	l, a
    0000075B 09               [ 8] 1508 	add	hl, bc
    0000075C 4D               [ 4] 1509 	ld	c, l
    0000075D 44               [ 4] 1510 	ld	b, h
    0000075E F8 17            [12] 1511 	ldhl	sp,	#23
    00000760 2A               [ 8] 1512 	ld	a,	(hl+)
    00000761 66               [ 8] 1513 	ld	h, (hl)
    00000762 6F               [ 4] 1514 	ld	l, a
    00000763 09               [ 8] 1515 	add	hl, bc
    00000764 4D               [ 4] 1516 	ld	c, l
    00000765 44               [ 4] 1517 	ld	b, h
    00000766 0A               [ 8] 1518 	ld	a, (bc)
                                   1519 ;include/collision.h:32: return famidash_metatile_collision[tile_id];
    00000767 6F               [ 4] 1520 	ld	l, a
    00000768 26 00            [ 8] 1521 	ld	h, #0x00
    0000076A 11r00r00         [12] 1522 	ld	de, #_famidash_metatile_collision
    0000076D 19               [ 8] 1523 	add	hl, de
    0000076E 4E               [ 8] 1524 	ld	c, (hl)
                                   1525 ;include/player.h:41: return col_at(px, py, map, map_w, map_h);
    0000076F                       1526 00240$:
                                   1527 ;src/player.c:76: if (IS_HAZARD(col_point(hx1, hy1, map, map_w, map_h)) ||
    0000076F 79               [ 4] 1528 	ld	a, c
    00000770 D6 02            [ 8] 1529 	sub	a, #0x02
    00000772 CArEDr0D         [16] 1530 	jp	Z, 00141$
                                   1531 ;include/collision.h:43: if (world_py < 0) return COL_NONE;
    00000775 F8 28            [12] 1532 	ldhl	sp,	#40
    00000777 7E               [ 8] 1533 	ld	a, (hl)
    00000778 B7               [ 4] 1534 	or	a, a
    00000779 28 06            [12] 1535 	jr	Z, 00243$
    0000077B F8 24            [12] 1536 	ldhl	sp,	#36
    0000077D 36 00            [12] 1537 	ld	(hl), #0x00
    0000077F 18 63            [12] 1538 	jr	00248$
    00000781                       1539 00243$:
                                   1540 ;include/collision.h:44: uint16_t mx = world_px >> 4;
    00000781 F8 1D            [12] 1541 	ldhl	sp,	#29
    00000783 7E               [ 8] 1542 	ld	a, (hl)
    00000784 F8 21            [12] 1543 	ldhl	sp,	#33
    00000786 77               [ 8] 1544 	ld	(hl), a
    00000787 F8 1E            [12] 1545 	ldhl	sp,	#30
    00000789 7E               [ 8] 1546 	ld	a, (hl)
    0000078A F8 22            [12] 1547 	ldhl	sp,	#34
    0000078C 77               [ 8] 1548 	ld	(hl), a
                                   1549 ;include/collision.h:45: uint16_t my = (uint16_t)world_py >> 4;
    0000078D F8 1F            [12] 1550 	ldhl	sp,	#31
    0000078F 7E               [ 8] 1551 	ld	a, (hl)
    00000790 F8 23            [12] 1552 	ldhl	sp,	#35
    00000792 77               [ 8] 1553 	ld	(hl), a
    00000793 F8 20            [12] 1554 	ldhl	sp,	#32
    00000795 7E               [ 8] 1555 	ld	a, (hl)
    00000796 F8 24            [12] 1556 	ldhl	sp,	#36
    00000798 77               [ 8] 1557 	ld	(hl), a
                                   1558 ;include/collision.h:47: if (mx >= map_w || my >= map_h) return COL_ALL;
    00000799 F8 21            [12] 1559 	ldhl	sp,	#33
    0000079B 5D               [ 4] 1560 	ld	e, l
    0000079C 54               [ 4] 1561 	ld	d, h
    0000079D F8 15            [12] 1562 	ldhl	sp,	#21
    0000079F 1A               [ 8] 1563 	ld	a, (de)
    000007A0 13               [ 8] 1564 	inc	de
    000007A1 96               [ 8] 1565 	sub	a, (hl)
    000007A2 23               [ 8] 1566 	inc	hl
    000007A3 1A               [ 8] 1567 	ld	a, (de)
    000007A4 9E               [ 8] 1568 	sbc	a, (hl)
    000007A5 30 0E            [12] 1569 	jr	NC, 00245$
    000007A7 F8 23            [12] 1570 	ldhl	sp,	#35
    000007A9 5D               [ 4] 1571 	ld	e, l
    000007AA 54               [ 4] 1572 	ld	d, h
    000007AB F8 13            [12] 1573 	ldhl	sp,	#19
    000007AD 1A               [ 8] 1574 	ld	a, (de)
    000007AE 13               [ 8] 1575 	inc	de
    000007AF 96               [ 8] 1576 	sub	a, (hl)
    000007B0 23               [ 8] 1577 	inc	hl
    000007B1 1A               [ 8] 1578 	ld	a, (de)
    000007B2 9E               [ 8] 1579 	sbc	a, (hl)
    000007B3 38 06            [12] 1580 	jr	C, 00246$
    000007B5                       1581 00245$:
    000007B5 F8 24            [12] 1582 	ldhl	sp,	#36
    000007B7 36 07            [12] 1583 	ld	(hl), #0x07
    000007B9 18 29            [12] 1584 	jr	00248$
    000007BB                       1585 00246$:
                                   1586 ;include/collision.h:48: return col_of(map[(uint16_t)my * map_w + mx]);
    000007BB F8 15            [12] 1587 	ldhl	sp,	#21
    000007BD 2A               [ 8] 1588 	ld	a, (hl+)
    000007BE 4F               [ 4] 1589 	ld	c, a
    000007BF 46               [ 8] 1590 	ld	b, (hl)
    000007C0 F8 23            [12] 1591 	ldhl	sp,	#35
    000007C2 2A               [ 8] 1592 	ld	a, (hl+)
    000007C3 5F               [ 4] 1593 	ld	e, a
    000007C4 56               [ 8] 1594 	ld	d, (hl)
    000007C5 CDr00r00         [24] 1595 	call	__mulint
    000007C8 F8 21            [12] 1596 	ldhl	sp,	#33
    000007CA 2A               [ 8] 1597 	ld	a,	(hl+)
    000007CB 66               [ 8] 1598 	ld	h, (hl)
    000007CC 6F               [ 4] 1599 	ld	l, a
    000007CD 09               [ 8] 1600 	add	hl, bc
    000007CE 4D               [ 4] 1601 	ld	c, l
    000007CF 44               [ 4] 1602 	ld	b, h
    000007D0 F8 17            [12] 1603 	ldhl	sp,	#23
    000007D2 2A               [ 8] 1604 	ld	a,	(hl+)
    000007D3 66               [ 8] 1605 	ld	h, (hl)
    000007D4 6F               [ 4] 1606 	ld	l, a
    000007D5 09               [ 8] 1607 	add	hl, bc
    000007D6 4D               [ 4] 1608 	ld	c, l
    000007D7 44               [ 4] 1609 	ld	b, h
    000007D8 0A               [ 8] 1610 	ld	a, (bc)
                                   1611 ;include/collision.h:32: return famidash_metatile_collision[tile_id];
    000007D9 6F               [ 4] 1612 	ld	l, a
    000007DA 26 00            [ 8] 1613 	ld	h, #0x00
    000007DC 11r00r00         [12] 1614 	ld	de, #_famidash_metatile_collision
    000007DF 19               [ 8] 1615 	add	hl, de
    000007E0 7E               [ 8] 1616 	ld	a, (hl)
    000007E1 F8 24            [12] 1617 	ldhl	sp,	#36
    000007E3 77               [ 8] 1618 	ld	(hl), a
                                   1619 ;include/player.h:41: return col_at(px, py, map, map_w, map_h);
    000007E4                       1620 00248$:
                                   1621 ;src/player.c:76: if (IS_HAZARD(col_point(hx1, hy1, map, map_w, map_h)) ||
    000007E4 F8 24            [12] 1622 	ldhl	sp,	#36
    000007E6 7E               [ 8] 1623 	ld	a, (hl)
    000007E7 3D               [ 4] 1624 	dec	a
    000007E8 CArEDr0D         [16] 1625 	jp	Z, 00141$
                                   1626 ;include/collision.h:44: uint16_t mx = world_px >> 4;
    000007EB F8 08            [12] 1627 	ldhl	sp,	#8
    000007ED 7E               [ 8] 1628 	ld	a, (hl)
    000007EE F8 23            [12] 1629 	ldhl	sp,	#35
    000007F0 77               [ 8] 1630 	ld	(hl), a
    000007F1 F8 09            [12] 1631 	ldhl	sp,	#9
    000007F3 7E               [ 8] 1632 	ld	a, (hl)
    000007F4 F8 24            [12] 1633 	ldhl	sp,	#36
    000007F6 77               [ 8] 1634 	ld	(hl), a
    000007F7 CB 3E            [16] 1635 	srl	(hl)
    000007F9 2B               [ 8] 1636 	dec	hl
    000007FA CB 1E            [16] 1637 	rr	(hl)
    000007FC 23               [ 8] 1638 	inc	hl
    000007FD CB 3E            [16] 1639 	srl	(hl)
    000007FF 2B               [ 8] 1640 	dec	hl
    00000800 CB 1E            [16] 1641 	rr	(hl)
    00000802 23               [ 8] 1642 	inc	hl
    00000803 CB 3E            [16] 1643 	srl	(hl)
    00000805 2B               [ 8] 1644 	dec	hl
    00000806 CB 1E            [16] 1645 	rr	(hl)
    00000808 23               [ 8] 1646 	inc	hl
    00000809 CB 3E            [16] 1647 	srl	(hl)
    0000080B 2B               [ 8] 1648 	dec	hl
    0000080C CB 1E            [16] 1649 	rr	(hl)
                                   1650 ;include/collision.h:43: if (world_py < 0) return COL_NONE;
    0000080E F8 28            [12] 1651 	ldhl	sp,	#40
    00000810 7E               [ 8] 1652 	ld	a, (hl)
    00000811 B7               [ 4] 1653 	or	a, a
    00000812 28 04            [12] 1654 	jr	Z, 00251$
    00000814 0E 00            [ 8] 1655 	ld	c, #0x00
    00000816 18 4D            [12] 1656 	jr	00256$
    00000818                       1657 00251$:
                                   1658 ;include/collision.h:44: uint16_t mx = world_px >> 4;
    00000818 F8 23            [12] 1659 	ldhl	sp,	#35
    0000081A 3A               [ 8] 1660 	ld	a, (hl-)
    0000081B 2B               [ 8] 1661 	dec	hl
    0000081C 77               [ 8] 1662 	ld	(hl), a
    0000081D F8 24            [12] 1663 	ldhl	sp,	#36
    0000081F 3A               [ 8] 1664 	ld	a, (hl-)
    00000820 2B               [ 8] 1665 	dec	hl
    00000821 77               [ 8] 1666 	ld	(hl), a
                                   1667 ;include/collision.h:45: uint16_t my = (uint16_t)world_py >> 4;
    00000822 F8 1F            [12] 1668 	ldhl	sp,	#31
    00000824 2A               [ 8] 1669 	ld	a, (hl+)
    00000825 5F               [ 4] 1670 	ld	e, a
    00000826 56               [ 8] 1671 	ld	d, (hl)
                                   1672 ;include/collision.h:47: if (mx >= map_w || my >= map_h) return COL_ALL;
    00000827 D5               [16] 1673 	push	de
    00000828 F8 23            [12] 1674 	ldhl	sp,	#35
    0000082A 5D               [ 4] 1675 	ld	e, l
    0000082B 54               [ 4] 1676 	ld	d, h
    0000082C F8 17            [12] 1677 	ldhl	sp,	#23
    0000082E 1A               [ 8] 1678 	ld	a, (de)
    0000082F 13               [ 8] 1679 	inc	de
    00000830 96               [ 8] 1680 	sub	a, (hl)
    00000831 23               [ 8] 1681 	inc	hl
    00000832 1A               [ 8] 1682 	ld	a, (de)
    00000833 9E               [ 8] 1683 	sbc	a, (hl)
    00000834 D1               [12] 1684 	pop	de
    00000835 30 09            [12] 1685 	jr	NC, 00253$
    00000837 F8 13            [12] 1686 	ldhl	sp,	#19
    00000839 7B               [ 4] 1687 	ld	a, e
    0000083A 96               [ 8] 1688 	sub	a, (hl)
    0000083B 23               [ 8] 1689 	inc	hl
    0000083C 7A               [ 4] 1690 	ld	a, d
    0000083D 9E               [ 8] 1691 	sbc	a, (hl)
    0000083E 38 04            [12] 1692 	jr	C, 00254$
    00000840                       1693 00253$:
    00000840 0E 07            [ 8] 1694 	ld	c, #0x07
    00000842 18 21            [12] 1695 	jr	00256$
    00000844                       1696 00254$:
                                   1697 ;include/collision.h:48: return col_of(map[(uint16_t)my * map_w + mx]);
    00000844 F8 15            [12] 1698 	ldhl	sp,	#21
    00000846 2A               [ 8] 1699 	ld	a, (hl+)
    00000847 4F               [ 4] 1700 	ld	c, a
    00000848 46               [ 8] 1701 	ld	b, (hl)
    00000849 CDr00r00         [24] 1702 	call	__mulint
    0000084C F8 21            [12] 1703 	ldhl	sp,	#33
    0000084E 2A               [ 8] 1704 	ld	a,	(hl+)
    0000084F 66               [ 8] 1705 	ld	h, (hl)
    00000850 6F               [ 4] 1706 	ld	l, a
    00000851 09               [ 8] 1707 	add	hl, bc
    00000852 4D               [ 4] 1708 	ld	c, l
    00000853 44               [ 4] 1709 	ld	b, h
    00000854 F8 17            [12] 1710 	ldhl	sp,	#23
    00000856 2A               [ 8] 1711 	ld	a,	(hl+)
    00000857 66               [ 8] 1712 	ld	h, (hl)
    00000858 6F               [ 4] 1713 	ld	l, a
    00000859 09               [ 8] 1714 	add	hl, bc
    0000085A 4D               [ 4] 1715 	ld	c, l
    0000085B 44               [ 4] 1716 	ld	b, h
    0000085C 0A               [ 8] 1717 	ld	a, (bc)
                                   1718 ;include/collision.h:32: return famidash_metatile_collision[tile_id];
    0000085D 6F               [ 4] 1719 	ld	l, a
    0000085E 26 00            [ 8] 1720 	ld	h, #0x00
    00000860 11r00r00         [12] 1721 	ld	de, #_famidash_metatile_collision
    00000863 19               [ 8] 1722 	add	hl, de
    00000864 4E               [ 8] 1723 	ld	c, (hl)
                                   1724 ;include/player.h:41: return col_at(px, py, map, map_w, map_h);
    00000865                       1725 00256$:
                                   1726 ;src/player.c:77: IS_HAZARD(col_point(hx2, hy1, map, map_w, map_h)) ||
    00000865 79               [ 4] 1727 	ld	a, c
    00000866 D6 08            [ 8] 1728 	sub	a, #0x08
    00000868 CArEDr0D         [16] 1729 	jp	Z, 00141$
                                   1730 ;include/collision.h:43: if (world_py < 0) return COL_NONE;
    0000086B F8 28            [12] 1731 	ldhl	sp,	#40
    0000086D 7E               [ 8] 1732 	ld	a, (hl)
    0000086E B7               [ 4] 1733 	or	a, a
    0000086F 28 04            [12] 1734 	jr	Z, 00259$
    00000871 0E 00            [ 8] 1735 	ld	c, #0x00
    00000873 18 4D            [12] 1736 	jr	00264$
    00000875                       1737 00259$:
                                   1738 ;include/collision.h:44: uint16_t mx = world_px >> 4;
    00000875 F8 23            [12] 1739 	ldhl	sp,	#35
    00000877 3A               [ 8] 1740 	ld	a, (hl-)
    00000878 2B               [ 8] 1741 	dec	hl
    00000879 77               [ 8] 1742 	ld	(hl), a
    0000087A F8 24            [12] 1743 	ldhl	sp,	#36
    0000087C 3A               [ 8] 1744 	ld	a, (hl-)
    0000087D 2B               [ 8] 1745 	dec	hl
    0000087E 77               [ 8] 1746 	ld	(hl), a
                                   1747 ;include/collision.h:45: uint16_t my = (uint16_t)world_py >> 4;
    0000087F F8 1F            [12] 1748 	ldhl	sp,	#31
    00000881 2A               [ 8] 1749 	ld	a, (hl+)
    00000882 5F               [ 4] 1750 	ld	e, a
    00000883 56               [ 8] 1751 	ld	d, (hl)
                                   1752 ;include/collision.h:47: if (mx >= map_w || my >= map_h) return COL_ALL;
    00000884 D5               [16] 1753 	push	de
    00000885 F8 23            [12] 1754 	ldhl	sp,	#35
    00000887 5D               [ 4] 1755 	ld	e, l
    00000888 54               [ 4] 1756 	ld	d, h
    00000889 F8 17            [12] 1757 	ldhl	sp,	#23
    0000088B 1A               [ 8] 1758 	ld	a, (de)
    0000088C 13               [ 8] 1759 	inc	de
    0000088D 96               [ 8] 1760 	sub	a, (hl)
    0000088E 23               [ 8] 1761 	inc	hl
    0000088F 1A               [ 8] 1762 	ld	a, (de)
    00000890 9E               [ 8] 1763 	sbc	a, (hl)
    00000891 D1               [12] 1764 	pop	de
    00000892 30 09            [12] 1765 	jr	NC, 00261$
    00000894 F8 13            [12] 1766 	ldhl	sp,	#19
    00000896 7B               [ 4] 1767 	ld	a, e
    00000897 96               [ 8] 1768 	sub	a, (hl)
    00000898 23               [ 8] 1769 	inc	hl
    00000899 7A               [ 4] 1770 	ld	a, d
    0000089A 9E               [ 8] 1771 	sbc	a, (hl)
    0000089B 38 04            [12] 1772 	jr	C, 00262$
    0000089D                       1773 00261$:
    0000089D 0E 07            [ 8] 1774 	ld	c, #0x07
    0000089F 18 21            [12] 1775 	jr	00264$
    000008A1                       1776 00262$:
                                   1777 ;include/collision.h:48: return col_of(map[(uint16_t)my * map_w + mx]);
    000008A1 F8 15            [12] 1778 	ldhl	sp,	#21
    000008A3 2A               [ 8] 1779 	ld	a, (hl+)
    000008A4 4F               [ 4] 1780 	ld	c, a
    000008A5 46               [ 8] 1781 	ld	b, (hl)
    000008A6 CDr00r00         [24] 1782 	call	__mulint
    000008A9 F8 21            [12] 1783 	ldhl	sp,	#33
    000008AB 2A               [ 8] 1784 	ld	a,	(hl+)
    000008AC 66               [ 8] 1785 	ld	h, (hl)
    000008AD 6F               [ 4] 1786 	ld	l, a
    000008AE 09               [ 8] 1787 	add	hl, bc
    000008AF 4D               [ 4] 1788 	ld	c, l
    000008B0 44               [ 4] 1789 	ld	b, h
    000008B1 F8 17            [12] 1790 	ldhl	sp,	#23
    000008B3 2A               [ 8] 1791 	ld	a,	(hl+)
    000008B4 66               [ 8] 1792 	ld	h, (hl)
    000008B5 6F               [ 4] 1793 	ld	l, a
    000008B6 09               [ 8] 1794 	add	hl, bc
    000008B7 4D               [ 4] 1795 	ld	c, l
    000008B8 44               [ 4] 1796 	ld	b, h
    000008B9 0A               [ 8] 1797 	ld	a, (bc)
                                   1798 ;include/collision.h:32: return famidash_metatile_collision[tile_id];
    000008BA 6F               [ 4] 1799 	ld	l, a
    000008BB 26 00            [ 8] 1800 	ld	h, #0x00
    000008BD 11r00r00         [12] 1801 	ld	de, #_famidash_metatile_collision
    000008C0 19               [ 8] 1802 	add	hl, de
    000008C1 4E               [ 8] 1803 	ld	c, (hl)
                                   1804 ;include/player.h:41: return col_at(px, py, map, map_w, map_h);
    000008C2                       1805 00264$:
                                   1806 ;src/player.c:77: IS_HAZARD(col_point(hx2, hy1, map, map_w, map_h)) ||
    000008C2 79               [ 4] 1807 	ld	a, c
    000008C3 D6 03            [ 8] 1808 	sub	a, #0x03
    000008C5 CArEDr0D         [16] 1809 	jp	Z, 00141$
                                   1810 ;include/collision.h:43: if (world_py < 0) return COL_NONE;
    000008C8 F8 28            [12] 1811 	ldhl	sp,	#40
    000008CA 7E               [ 8] 1812 	ld	a, (hl)
    000008CB B7               [ 4] 1813 	or	a, a
    000008CC 28 04            [12] 1814 	jr	Z, 00267$
    000008CE 0E 00            [ 8] 1815 	ld	c, #0x00
    000008D0 18 4D            [12] 1816 	jr	00272$
    000008D2                       1817 00267$:
                                   1818 ;include/collision.h:44: uint16_t mx = world_px >> 4;
    000008D2 F8 23            [12] 1819 	ldhl	sp,	#35
    000008D4 3A               [ 8] 1820 	ld	a, (hl-)
    000008D5 2B               [ 8] 1821 	dec	hl
    000008D6 77               [ 8] 1822 	ld	(hl), a
    000008D7 F8 24            [12] 1823 	ldhl	sp,	#36
    000008D9 3A               [ 8] 1824 	ld	a, (hl-)
    000008DA 2B               [ 8] 1825 	dec	hl
    000008DB 77               [ 8] 1826 	ld	(hl), a
                                   1827 ;include/collision.h:45: uint16_t my = (uint16_t)world_py >> 4;
    000008DC F8 1F            [12] 1828 	ldhl	sp,	#31
    000008DE 2A               [ 8] 1829 	ld	a, (hl+)
    000008DF 5F               [ 4] 1830 	ld	e, a
    000008E0 56               [ 8] 1831 	ld	d, (hl)
                                   1832 ;include/collision.h:47: if (mx >= map_w || my >= map_h) return COL_ALL;
    000008E1 D5               [16] 1833 	push	de
    000008E2 F8 23            [12] 1834 	ldhl	sp,	#35
    000008E4 5D               [ 4] 1835 	ld	e, l
    000008E5 54               [ 4] 1836 	ld	d, h
    000008E6 F8 17            [12] 1837 	ldhl	sp,	#23
    000008E8 1A               [ 8] 1838 	ld	a, (de)
    000008E9 13               [ 8] 1839 	inc	de
    000008EA 96               [ 8] 1840 	sub	a, (hl)
    000008EB 23               [ 8] 1841 	inc	hl
    000008EC 1A               [ 8] 1842 	ld	a, (de)
    000008ED 9E               [ 8] 1843 	sbc	a, (hl)
    000008EE D1               [12] 1844 	pop	de
    000008EF 30 09            [12] 1845 	jr	NC, 00269$
    000008F1 F8 13            [12] 1846 	ldhl	sp,	#19
    000008F3 7B               [ 4] 1847 	ld	a, e
    000008F4 96               [ 8] 1848 	sub	a, (hl)
    000008F5 23               [ 8] 1849 	inc	hl
    000008F6 7A               [ 4] 1850 	ld	a, d
    000008F7 9E               [ 8] 1851 	sbc	a, (hl)
    000008F8 38 04            [12] 1852 	jr	C, 00270$
    000008FA                       1853 00269$:
    000008FA 0E 07            [ 8] 1854 	ld	c, #0x07
    000008FC 18 21            [12] 1855 	jr	00272$
    000008FE                       1856 00270$:
                                   1857 ;include/collision.h:48: return col_of(map[(uint16_t)my * map_w + mx]);
    000008FE F8 15            [12] 1858 	ldhl	sp,	#21
    00000900 2A               [ 8] 1859 	ld	a, (hl+)
    00000901 4F               [ 4] 1860 	ld	c, a
    00000902 46               [ 8] 1861 	ld	b, (hl)
    00000903 CDr00r00         [24] 1862 	call	__mulint
    00000906 F8 21            [12] 1863 	ldhl	sp,	#33
    00000908 2A               [ 8] 1864 	ld	a,	(hl+)
    00000909 66               [ 8] 1865 	ld	h, (hl)
    0000090A 6F               [ 4] 1866 	ld	l, a
    0000090B 09               [ 8] 1867 	add	hl, bc
    0000090C 4D               [ 4] 1868 	ld	c, l
    0000090D 44               [ 4] 1869 	ld	b, h
    0000090E F8 17            [12] 1870 	ldhl	sp,	#23
    00000910 2A               [ 8] 1871 	ld	a,	(hl+)
    00000911 66               [ 8] 1872 	ld	h, (hl)
    00000912 6F               [ 4] 1873 	ld	l, a
    00000913 09               [ 8] 1874 	add	hl, bc
    00000914 4D               [ 4] 1875 	ld	c, l
    00000915 44               [ 4] 1876 	ld	b, h
    00000916 0A               [ 8] 1877 	ld	a, (bc)
                                   1878 ;include/collision.h:32: return famidash_metatile_collision[tile_id];
    00000917 6F               [ 4] 1879 	ld	l, a
    00000918 26 00            [ 8] 1880 	ld	h, #0x00
    0000091A 11r00r00         [12] 1881 	ld	de, #_famidash_metatile_collision
    0000091D 19               [ 8] 1882 	add	hl, de
    0000091E 4E               [ 8] 1883 	ld	c, (hl)
                                   1884 ;include/player.h:41: return col_at(px, py, map, map_w, map_h);
    0000091F                       1885 00272$:
                                   1886 ;src/player.c:77: IS_HAZARD(col_point(hx2, hy1, map, map_w, map_h)) ||
    0000091F 79               [ 4] 1887 	ld	a, c
    00000920 D6 04            [ 8] 1888 	sub	a, #0x04
    00000922 CArEDr0D         [16] 1889 	jp	Z, 00141$
                                   1890 ;include/collision.h:43: if (world_py < 0) return COL_NONE;
    00000925 F8 28            [12] 1891 	ldhl	sp,	#40
    00000927 7E               [ 8] 1892 	ld	a, (hl)
    00000928 B7               [ 4] 1893 	or	a, a
    00000929 28 04            [12] 1894 	jr	Z, 00275$
    0000092B 0E 00            [ 8] 1895 	ld	c, #0x00
    0000092D 18 4D            [12] 1896 	jr	00280$
    0000092F                       1897 00275$:
                                   1898 ;include/collision.h:44: uint16_t mx = world_px >> 4;
    0000092F F8 23            [12] 1899 	ldhl	sp,	#35
    00000931 3A               [ 8] 1900 	ld	a, (hl-)
    00000932 2B               [ 8] 1901 	dec	hl
    00000933 77               [ 8] 1902 	ld	(hl), a
    00000934 F8 24            [12] 1903 	ldhl	sp,	#36
    00000936 3A               [ 8] 1904 	ld	a, (hl-)
    00000937 2B               [ 8] 1905 	dec	hl
    00000938 77               [ 8] 1906 	ld	(hl), a
                                   1907 ;include/collision.h:45: uint16_t my = (uint16_t)world_py >> 4;
    00000939 F8 1F            [12] 1908 	ldhl	sp,	#31
    0000093B 2A               [ 8] 1909 	ld	a, (hl+)
    0000093C 5F               [ 4] 1910 	ld	e, a
    0000093D 56               [ 8] 1911 	ld	d, (hl)
                                   1912 ;include/collision.h:47: if (mx >= map_w || my >= map_h) return COL_ALL;
    0000093E D5               [16] 1913 	push	de
    0000093F F8 23            [12] 1914 	ldhl	sp,	#35
    00000941 5D               [ 4] 1915 	ld	e, l
    00000942 54               [ 4] 1916 	ld	d, h
    00000943 F8 17            [12] 1917 	ldhl	sp,	#23
    00000945 1A               [ 8] 1918 	ld	a, (de)
    00000946 13               [ 8] 1919 	inc	de
    00000947 96               [ 8] 1920 	sub	a, (hl)
    00000948 23               [ 8] 1921 	inc	hl
    00000949 1A               [ 8] 1922 	ld	a, (de)
    0000094A 9E               [ 8] 1923 	sbc	a, (hl)
    0000094B D1               [12] 1924 	pop	de
    0000094C 30 09            [12] 1925 	jr	NC, 00277$
    0000094E F8 13            [12] 1926 	ldhl	sp,	#19
    00000950 7B               [ 4] 1927 	ld	a, e
    00000951 96               [ 8] 1928 	sub	a, (hl)
    00000952 23               [ 8] 1929 	inc	hl
    00000953 7A               [ 4] 1930 	ld	a, d
    00000954 9E               [ 8] 1931 	sbc	a, (hl)
    00000955 38 04            [12] 1932 	jr	C, 00278$
    00000957                       1933 00277$:
    00000957 0E 07            [ 8] 1934 	ld	c, #0x07
    00000959 18 21            [12] 1935 	jr	00280$
    0000095B                       1936 00278$:
                                   1937 ;include/collision.h:48: return col_of(map[(uint16_t)my * map_w + mx]);
    0000095B F8 15            [12] 1938 	ldhl	sp,	#21
    0000095D 2A               [ 8] 1939 	ld	a, (hl+)
    0000095E 4F               [ 4] 1940 	ld	c, a
    0000095F 46               [ 8] 1941 	ld	b, (hl)
    00000960 CDr00r00         [24] 1942 	call	__mulint
    00000963 F8 21            [12] 1943 	ldhl	sp,	#33
    00000965 2A               [ 8] 1944 	ld	a,	(hl+)
    00000966 66               [ 8] 1945 	ld	h, (hl)
    00000967 6F               [ 4] 1946 	ld	l, a
    00000968 09               [ 8] 1947 	add	hl, bc
    00000969 4D               [ 4] 1948 	ld	c, l
    0000096A 44               [ 4] 1949 	ld	b, h
    0000096B F8 17            [12] 1950 	ldhl	sp,	#23
    0000096D 2A               [ 8] 1951 	ld	a,	(hl+)
    0000096E 66               [ 8] 1952 	ld	h, (hl)
    0000096F 6F               [ 4] 1953 	ld	l, a
    00000970 09               [ 8] 1954 	add	hl, bc
    00000971 4D               [ 4] 1955 	ld	c, l
    00000972 44               [ 4] 1956 	ld	b, h
    00000973 0A               [ 8] 1957 	ld	a, (bc)
                                   1958 ;include/collision.h:32: return famidash_metatile_collision[tile_id];
    00000974 6F               [ 4] 1959 	ld	l, a
    00000975 26 00            [ 8] 1960 	ld	h, #0x00
    00000977 11r00r00         [12] 1961 	ld	de, #_famidash_metatile_collision
    0000097A 19               [ 8] 1962 	add	hl, de
    0000097B 4E               [ 8] 1963 	ld	c, (hl)
                                   1964 ;include/player.h:41: return col_at(px, py, map, map_w, map_h);
    0000097C                       1965 00280$:
                                   1966 ;src/player.c:77: IS_HAZARD(col_point(hx2, hy1, map, map_w, map_h)) ||
    0000097C 79               [ 4] 1967 	ld	a, c
    0000097D D6 02            [ 8] 1968 	sub	a, #0x02
    0000097F CArEDr0D         [16] 1969 	jp	Z, 00141$
                                   1970 ;include/collision.h:43: if (world_py < 0) return COL_NONE;
    00000982 F8 28            [12] 1971 	ldhl	sp,	#40
    00000984 7E               [ 8] 1972 	ld	a, (hl)
    00000985 B7               [ 4] 1973 	or	a, a
    00000986 28 04            [12] 1974 	jr	Z, 00283$
    00000988 36 00            [12] 1975 	ld	(hl), #0x00
    0000098A 18 5F            [12] 1976 	jr	00288$
    0000098C                       1977 00283$:
                                   1978 ;include/collision.h:44: uint16_t mx = world_px >> 4;
    0000098C F8 23            [12] 1979 	ldhl	sp,	#35
    0000098E 7E               [ 8] 1980 	ld	a, (hl)
    0000098F F8 08            [12] 1981 	ldhl	sp,	#8
    00000991 77               [ 8] 1982 	ld	(hl), a
    00000992 F8 24            [12] 1983 	ldhl	sp,	#36
    00000994 7E               [ 8] 1984 	ld	a, (hl)
    00000995 F8 09            [12] 1985 	ldhl	sp,	#9
    00000997 77               [ 8] 1986 	ld	(hl), a
                                   1987 ;include/collision.h:45: uint16_t my = (uint16_t)world_py >> 4;
    00000998 F8 1F            [12] 1988 	ldhl	sp,	#31
    0000099A 2A               [ 8] 1989 	ld	a, (hl+)
    0000099B 23               [ 8] 1990 	inc	hl
    0000099C 32               [ 8] 1991 	ld	(hl-), a
    0000099D 2A               [ 8] 1992 	ld	a, (hl+)
    0000099E 23               [ 8] 1993 	inc	hl
    0000099F 77               [ 8] 1994 	ld	(hl), a
                                   1995 ;include/collision.h:47: if (mx >= map_w || my >= map_h) return COL_ALL;
    000009A0 F8 08            [12] 1996 	ldhl	sp,	#8
    000009A2 5D               [ 4] 1997 	ld	e, l
    000009A3 54               [ 4] 1998 	ld	d, h
    000009A4 F8 15            [12] 1999 	ldhl	sp,	#21
    000009A6 1A               [ 8] 2000 	ld	a, (de)
    000009A7 13               [ 8] 2001 	inc	de
    000009A8 96               [ 8] 2002 	sub	a, (hl)
    000009A9 23               [ 8] 2003 	inc	hl
    000009AA 1A               [ 8] 2004 	ld	a, (de)
    000009AB 9E               [ 8] 2005 	sbc	a, (hl)
    000009AC 30 0E            [12] 2006 	jr	NC, 00285$
    000009AE F8 21            [12] 2007 	ldhl	sp,	#33
    000009B0 5D               [ 4] 2008 	ld	e, l
    000009B1 54               [ 4] 2009 	ld	d, h
    000009B2 F8 13            [12] 2010 	ldhl	sp,	#19
    000009B4 1A               [ 8] 2011 	ld	a, (de)
    000009B5 13               [ 8] 2012 	inc	de
    000009B6 96               [ 8] 2013 	sub	a, (hl)
    000009B7 23               [ 8] 2014 	inc	hl
    000009B8 1A               [ 8] 2015 	ld	a, (de)
    000009B9 9E               [ 8] 2016 	sbc	a, (hl)
    000009BA 38 06            [12] 2017 	jr	C, 00286$
    000009BC                       2018 00285$:
    000009BC F8 28            [12] 2019 	ldhl	sp,	#40
    000009BE 36 07            [12] 2020 	ld	(hl), #0x07
    000009C0 18 29            [12] 2021 	jr	00288$
    000009C2                       2022 00286$:
                                   2023 ;include/collision.h:48: return col_of(map[(uint16_t)my * map_w + mx]);
    000009C2 F8 15            [12] 2024 	ldhl	sp,	#21
    000009C4 2A               [ 8] 2025 	ld	a, (hl+)
    000009C5 4F               [ 4] 2026 	ld	c, a
    000009C6 46               [ 8] 2027 	ld	b, (hl)
    000009C7 F8 21            [12] 2028 	ldhl	sp,	#33
    000009C9 2A               [ 8] 2029 	ld	a, (hl+)
    000009CA 5F               [ 4] 2030 	ld	e, a
    000009CB 56               [ 8] 2031 	ld	d, (hl)
    000009CC CDr00r00         [24] 2032 	call	__mulint
    000009CF F8 08            [12] 2033 	ldhl	sp,	#8
    000009D1 2A               [ 8] 2034 	ld	a,	(hl+)
    000009D2 66               [ 8] 2035 	ld	h, (hl)
    000009D3 6F               [ 4] 2036 	ld	l, a
    000009D4 09               [ 8] 2037 	add	hl, bc
    000009D5 4D               [ 4] 2038 	ld	c, l
    000009D6 44               [ 4] 2039 	ld	b, h
    000009D7 F8 17            [12] 2040 	ldhl	sp,	#23
    000009D9 2A               [ 8] 2041 	ld	a,	(hl+)
    000009DA 66               [ 8] 2042 	ld	h, (hl)
    000009DB 6F               [ 4] 2043 	ld	l, a
    000009DC 09               [ 8] 2044 	add	hl, bc
    000009DD 4D               [ 4] 2045 	ld	c, l
    000009DE 44               [ 4] 2046 	ld	b, h
    000009DF 0A               [ 8] 2047 	ld	a, (bc)
                                   2048 ;include/collision.h:32: return famidash_metatile_collision[tile_id];
    000009E0 6F               [ 4] 2049 	ld	l, a
    000009E1 26 00            [ 8] 2050 	ld	h, #0x00
    000009E3 11r00r00         [12] 2051 	ld	de, #_famidash_metatile_collision
    000009E6 19               [ 8] 2052 	add	hl, de
    000009E7 7E               [ 8] 2053 	ld	a, (hl)
    000009E8 F8 28            [12] 2054 	ldhl	sp,	#40
    000009EA 77               [ 8] 2055 	ld	(hl), a
                                   2056 ;include/player.h:41: return col_at(px, py, map, map_w, map_h);
    000009EB                       2057 00288$:
                                   2058 ;src/player.c:77: IS_HAZARD(col_point(hx2, hy1, map, map_w, map_h)) ||
    000009EB F8 28            [12] 2059 	ldhl	sp,	#40
    000009ED 7E               [ 8] 2060 	ld	a, (hl)
    000009EE 3D               [ 4] 2061 	dec	a
    000009EF CArEDr0D         [16] 2062 	jp	Z, 00141$
                                   2063 ;include/collision.h:43: if (world_py < 0) return COL_NONE;
    000009F2 F8 0A            [12] 2064 	ldhl	sp,	#10
    000009F4 2A               [ 8] 2065 	ld	a, (hl+)
    000009F5 7E               [ 8] 2066 	ld	a, (hl)
    000009F6 07               [ 4] 2067 	rlca
    000009F7 E6 01            [ 8] 2068 	and	a,#0x01
    000009F9 F8 28            [12] 2069 	ldhl	sp,	#40
    000009FB 77               [ 8] 2070 	ld	(hl), a
                                   2071 ;include/collision.h:45: uint16_t my = (uint16_t)world_py >> 4;
    000009FC F8 0A            [12] 2072 	ldhl	sp,	#10
    000009FE 2A               [ 8] 2073 	ld	a, (hl+)
    000009FF 4F               [ 4] 2074 	ld	c, a
    00000A00 46               [ 8] 2075 	ld	b, (hl)
    00000A01 F8 1F            [12] 2076 	ldhl	sp,	#31
    00000A03 79               [ 4] 2077 	ld	a, c
    00000A04 22               [ 8] 2078 	ld	(hl+), a
    00000A05 70               [ 8] 2079 	ld	(hl), b
    00000A06 CB 3E            [16] 2080 	srl	(hl)
    00000A08 2B               [ 8] 2081 	dec	hl
    00000A09 CB 1E            [16] 2082 	rr	(hl)
    00000A0B 23               [ 8] 2083 	inc	hl
    00000A0C CB 3E            [16] 2084 	srl	(hl)
    00000A0E 2B               [ 8] 2085 	dec	hl
    00000A0F CB 1E            [16] 2086 	rr	(hl)
    00000A11 23               [ 8] 2087 	inc	hl
    00000A12 CB 3E            [16] 2088 	srl	(hl)
    00000A14 2B               [ 8] 2089 	dec	hl
    00000A15 CB 1E            [16] 2090 	rr	(hl)
    00000A17 23               [ 8] 2091 	inc	hl
    00000A18 CB 3E            [16] 2092 	srl	(hl)
    00000A1A 2B               [ 8] 2093 	dec	hl
    00000A1B CB 1E            [16] 2094 	rr	(hl)
                                   2095 ;include/collision.h:43: if (world_py < 0) return COL_NONE;
    00000A1D F8 28            [12] 2096 	ldhl	sp,	#40
    00000A1F 7E               [ 8] 2097 	ld	a, (hl)
    00000A20 B7               [ 4] 2098 	or	a, a
    00000A21 28 04            [12] 2099 	jr	Z, 00291$
    00000A23 0E 00            [ 8] 2100 	ld	c, #0x00
    00000A25 18 4F            [12] 2101 	jr	00296$
    00000A27                       2102 00291$:
                                   2103 ;include/collision.h:44: uint16_t mx = world_px >> 4;
    00000A27 F8 1D            [12] 2104 	ldhl	sp,	#29
    00000A29 7E               [ 8] 2105 	ld	a, (hl)
    00000A2A F8 21            [12] 2106 	ldhl	sp,	#33
    00000A2C 77               [ 8] 2107 	ld	(hl), a
    00000A2D F8 1E            [12] 2108 	ldhl	sp,	#30
    00000A2F 7E               [ 8] 2109 	ld	a, (hl)
    00000A30 F8 22            [12] 2110 	ldhl	sp,	#34
    00000A32 77               [ 8] 2111 	ld	(hl), a
                                   2112 ;include/collision.h:45: uint16_t my = (uint16_t)world_py >> 4;
    00000A33 F8 1F            [12] 2113 	ldhl	sp,	#31
    00000A35 2A               [ 8] 2114 	ld	a, (hl+)
    00000A36 5F               [ 4] 2115 	ld	e, a
    00000A37 56               [ 8] 2116 	ld	d, (hl)
                                   2117 ;include/collision.h:47: if (mx >= map_w || my >= map_h) return COL_ALL;
    00000A38 D5               [16] 2118 	push	de
    00000A39 F8 23            [12] 2119 	ldhl	sp,	#35
    00000A3B 5D               [ 4] 2120 	ld	e, l
    00000A3C 54               [ 4] 2121 	ld	d, h
    00000A3D F8 17            [12] 2122 	ldhl	sp,	#23
    00000A3F 1A               [ 8] 2123 	ld	a, (de)
    00000A40 13               [ 8] 2124 	inc	de
    00000A41 96               [ 8] 2125 	sub	a, (hl)
    00000A42 23               [ 8] 2126 	inc	hl
    00000A43 1A               [ 8] 2127 	ld	a, (de)
    00000A44 9E               [ 8] 2128 	sbc	a, (hl)
    00000A45 D1               [12] 2129 	pop	de
    00000A46 30 09            [12] 2130 	jr	NC, 00293$
    00000A48 F8 13            [12] 2131 	ldhl	sp,	#19
    00000A4A 7B               [ 4] 2132 	ld	a, e
    00000A4B 96               [ 8] 2133 	sub	a, (hl)
    00000A4C 23               [ 8] 2134 	inc	hl
    00000A4D 7A               [ 4] 2135 	ld	a, d
    00000A4E 9E               [ 8] 2136 	sbc	a, (hl)
    00000A4F 38 04            [12] 2137 	jr	C, 00294$
    00000A51                       2138 00293$:
    00000A51 0E 07            [ 8] 2139 	ld	c, #0x07
    00000A53 18 21            [12] 2140 	jr	00296$
    00000A55                       2141 00294$:
                                   2142 ;include/collision.h:48: return col_of(map[(uint16_t)my * map_w + mx]);
    00000A55 F8 15            [12] 2143 	ldhl	sp,	#21
    00000A57 2A               [ 8] 2144 	ld	a, (hl+)
    00000A58 4F               [ 4] 2145 	ld	c, a
    00000A59 46               [ 8] 2146 	ld	b, (hl)
    00000A5A CDr00r00         [24] 2147 	call	__mulint
    00000A5D F8 21            [12] 2148 	ldhl	sp,	#33
    00000A5F 2A               [ 8] 2149 	ld	a,	(hl+)
    00000A60 66               [ 8] 2150 	ld	h, (hl)
    00000A61 6F               [ 4] 2151 	ld	l, a
    00000A62 09               [ 8] 2152 	add	hl, bc
    00000A63 4D               [ 4] 2153 	ld	c, l
    00000A64 44               [ 4] 2154 	ld	b, h
    00000A65 F8 17            [12] 2155 	ldhl	sp,	#23
    00000A67 2A               [ 8] 2156 	ld	a,	(hl+)
    00000A68 66               [ 8] 2157 	ld	h, (hl)
    00000A69 6F               [ 4] 2158 	ld	l, a
    00000A6A 09               [ 8] 2159 	add	hl, bc
    00000A6B 4D               [ 4] 2160 	ld	c, l
    00000A6C 44               [ 4] 2161 	ld	b, h
    00000A6D 0A               [ 8] 2162 	ld	a, (bc)
                                   2163 ;include/collision.h:32: return famidash_metatile_collision[tile_id];
    00000A6E 6F               [ 4] 2164 	ld	l, a
    00000A6F 26 00            [ 8] 2165 	ld	h, #0x00
    00000A71 11r00r00         [12] 2166 	ld	de, #_famidash_metatile_collision
    00000A74 19               [ 8] 2167 	add	hl, de
    00000A75 4E               [ 8] 2168 	ld	c, (hl)
                                   2169 ;include/player.h:41: return col_at(px, py, map, map_w, map_h);
    00000A76                       2170 00296$:
                                   2171 ;src/player.c:78: IS_HAZARD(col_point(hx1, hy2, map, map_w, map_h)) ||
    00000A76 79               [ 4] 2172 	ld	a, c
    00000A77 D6 08            [ 8] 2173 	sub	a, #0x08
    00000A79 CArEDr0D         [16] 2174 	jp	Z, 00141$
                                   2175 ;include/collision.h:43: if (world_py < 0) return COL_NONE;
    00000A7C F8 28            [12] 2176 	ldhl	sp,	#40
    00000A7E 7E               [ 8] 2177 	ld	a, (hl)
    00000A7F B7               [ 4] 2178 	or	a, a
    00000A80 28 04            [12] 2179 	jr	Z, 00299$
    00000A82 0E 00            [ 8] 2180 	ld	c, #0x00
    00000A84 18 4F            [12] 2181 	jr	00304$
    00000A86                       2182 00299$:
                                   2183 ;include/collision.h:44: uint16_t mx = world_px >> 4;
    00000A86 F8 1D            [12] 2184 	ldhl	sp,	#29
    00000A88 7E               [ 8] 2185 	ld	a, (hl)
    00000A89 F8 21            [12] 2186 	ldhl	sp,	#33
    00000A8B 77               [ 8] 2187 	ld	(hl), a
    00000A8C F8 1E            [12] 2188 	ldhl	sp,	#30
    00000A8E 7E               [ 8] 2189 	ld	a, (hl)
    00000A8F F8 22            [12] 2190 	ldhl	sp,	#34
    00000A91 77               [ 8] 2191 	ld	(hl), a
                                   2192 ;include/collision.h:45: uint16_t my = (uint16_t)world_py >> 4;
    00000A92 F8 1F            [12] 2193 	ldhl	sp,	#31
    00000A94 2A               [ 8] 2194 	ld	a, (hl+)
    00000A95 5F               [ 4] 2195 	ld	e, a
    00000A96 56               [ 8] 2196 	ld	d, (hl)
                                   2197 ;include/collision.h:47: if (mx >= map_w || my >= map_h) return COL_ALL;
    00000A97 D5               [16] 2198 	push	de
    00000A98 F8 23            [12] 2199 	ldhl	sp,	#35
    00000A9A 5D               [ 4] 2200 	ld	e, l
    00000A9B 54               [ 4] 2201 	ld	d, h
    00000A9C F8 17            [12] 2202 	ldhl	sp,	#23
    00000A9E 1A               [ 8] 2203 	ld	a, (de)
    00000A9F 13               [ 8] 2204 	inc	de
    00000AA0 96               [ 8] 2205 	sub	a, (hl)
    00000AA1 23               [ 8] 2206 	inc	hl
    00000AA2 1A               [ 8] 2207 	ld	a, (de)
    00000AA3 9E               [ 8] 2208 	sbc	a, (hl)
    00000AA4 D1               [12] 2209 	pop	de
    00000AA5 30 09            [12] 2210 	jr	NC, 00301$
    00000AA7 F8 13            [12] 2211 	ldhl	sp,	#19
    00000AA9 7B               [ 4] 2212 	ld	a, e
    00000AAA 96               [ 8] 2213 	sub	a, (hl)
    00000AAB 23               [ 8] 2214 	inc	hl
    00000AAC 7A               [ 4] 2215 	ld	a, d
    00000AAD 9E               [ 8] 2216 	sbc	a, (hl)
    00000AAE 38 04            [12] 2217 	jr	C, 00302$
    00000AB0                       2218 00301$:
    00000AB0 0E 07            [ 8] 2219 	ld	c, #0x07
    00000AB2 18 21            [12] 2220 	jr	00304$
    00000AB4                       2221 00302$:
                                   2222 ;include/collision.h:48: return col_of(map[(uint16_t)my * map_w + mx]);
    00000AB4 F8 15            [12] 2223 	ldhl	sp,	#21
    00000AB6 2A               [ 8] 2224 	ld	a, (hl+)
    00000AB7 4F               [ 4] 2225 	ld	c, a
    00000AB8 46               [ 8] 2226 	ld	b, (hl)
    00000AB9 CDr00r00         [24] 2227 	call	__mulint
    00000ABC F8 21            [12] 2228 	ldhl	sp,	#33
    00000ABE 2A               [ 8] 2229 	ld	a,	(hl+)
    00000ABF 66               [ 8] 2230 	ld	h, (hl)
    00000AC0 6F               [ 4] 2231 	ld	l, a
    00000AC1 09               [ 8] 2232 	add	hl, bc
    00000AC2 4D               [ 4] 2233 	ld	c, l
    00000AC3 44               [ 4] 2234 	ld	b, h
    00000AC4 F8 17            [12] 2235 	ldhl	sp,	#23
    00000AC6 2A               [ 8] 2236 	ld	a,	(hl+)
    00000AC7 66               [ 8] 2237 	ld	h, (hl)
    00000AC8 6F               [ 4] 2238 	ld	l, a
    00000AC9 09               [ 8] 2239 	add	hl, bc
    00000ACA 4D               [ 4] 2240 	ld	c, l
    00000ACB 44               [ 4] 2241 	ld	b, h
    00000ACC 0A               [ 8] 2242 	ld	a, (bc)
                                   2243 ;include/collision.h:32: return famidash_metatile_collision[tile_id];
    00000ACD 6F               [ 4] 2244 	ld	l, a
    00000ACE 26 00            [ 8] 2245 	ld	h, #0x00
    00000AD0 11r00r00         [12] 2246 	ld	de, #_famidash_metatile_collision
    00000AD3 19               [ 8] 2247 	add	hl, de
    00000AD4 4E               [ 8] 2248 	ld	c, (hl)
                                   2249 ;include/player.h:41: return col_at(px, py, map, map_w, map_h);
    00000AD5                       2250 00304$:
                                   2251 ;src/player.c:78: IS_HAZARD(col_point(hx1, hy2, map, map_w, map_h)) ||
    00000AD5 79               [ 4] 2252 	ld	a, c
    00000AD6 D6 03            [ 8] 2253 	sub	a, #0x03
    00000AD8 CArEDr0D         [16] 2254 	jp	Z, 00141$
                                   2255 ;include/collision.h:43: if (world_py < 0) return COL_NONE;
    00000ADB F8 28            [12] 2256 	ldhl	sp,	#40
    00000ADD 7E               [ 8] 2257 	ld	a, (hl)
    00000ADE B7               [ 4] 2258 	or	a, a
    00000ADF 28 04            [12] 2259 	jr	Z, 00307$
    00000AE1 0E 00            [ 8] 2260 	ld	c, #0x00
    00000AE3 18 4F            [12] 2261 	jr	00312$
    00000AE5                       2262 00307$:
                                   2263 ;include/collision.h:44: uint16_t mx = world_px >> 4;
    00000AE5 F8 1D            [12] 2264 	ldhl	sp,	#29
    00000AE7 7E               [ 8] 2265 	ld	a, (hl)
    00000AE8 F8 21            [12] 2266 	ldhl	sp,	#33
    00000AEA 77               [ 8] 2267 	ld	(hl), a
    00000AEB F8 1E            [12] 2268 	ldhl	sp,	#30
    00000AED 7E               [ 8] 2269 	ld	a, (hl)
    00000AEE F8 22            [12] 2270 	ldhl	sp,	#34
    00000AF0 77               [ 8] 2271 	ld	(hl), a
                                   2272 ;include/collision.h:45: uint16_t my = (uint16_t)world_py >> 4;
    00000AF1 F8 1F            [12] 2273 	ldhl	sp,	#31
    00000AF3 2A               [ 8] 2274 	ld	a, (hl+)
    00000AF4 5F               [ 4] 2275 	ld	e, a
    00000AF5 56               [ 8] 2276 	ld	d, (hl)
                                   2277 ;include/collision.h:47: if (mx >= map_w || my >= map_h) return COL_ALL;
    00000AF6 D5               [16] 2278 	push	de
    00000AF7 F8 23            [12] 2279 	ldhl	sp,	#35
    00000AF9 5D               [ 4] 2280 	ld	e, l
    00000AFA 54               [ 4] 2281 	ld	d, h
    00000AFB F8 17            [12] 2282 	ldhl	sp,	#23
    00000AFD 1A               [ 8] 2283 	ld	a, (de)
    00000AFE 13               [ 8] 2284 	inc	de
    00000AFF 96               [ 8] 2285 	sub	a, (hl)
    00000B00 23               [ 8] 2286 	inc	hl
    00000B01 1A               [ 8] 2287 	ld	a, (de)
    00000B02 9E               [ 8] 2288 	sbc	a, (hl)
    00000B03 D1               [12] 2289 	pop	de
    00000B04 30 09            [12] 2290 	jr	NC, 00309$
    00000B06 F8 13            [12] 2291 	ldhl	sp,	#19
    00000B08 7B               [ 4] 2292 	ld	a, e
    00000B09 96               [ 8] 2293 	sub	a, (hl)
    00000B0A 23               [ 8] 2294 	inc	hl
    00000B0B 7A               [ 4] 2295 	ld	a, d
    00000B0C 9E               [ 8] 2296 	sbc	a, (hl)
    00000B0D 38 04            [12] 2297 	jr	C, 00310$
    00000B0F                       2298 00309$:
    00000B0F 0E 07            [ 8] 2299 	ld	c, #0x07
    00000B11 18 21            [12] 2300 	jr	00312$
    00000B13                       2301 00310$:
                                   2302 ;include/collision.h:48: return col_of(map[(uint16_t)my * map_w + mx]);
    00000B13 F8 15            [12] 2303 	ldhl	sp,	#21
    00000B15 2A               [ 8] 2304 	ld	a, (hl+)
    00000B16 4F               [ 4] 2305 	ld	c, a
    00000B17 46               [ 8] 2306 	ld	b, (hl)
    00000B18 CDr00r00         [24] 2307 	call	__mulint
    00000B1B F8 21            [12] 2308 	ldhl	sp,	#33
    00000B1D 2A               [ 8] 2309 	ld	a,	(hl+)
    00000B1E 66               [ 8] 2310 	ld	h, (hl)
    00000B1F 6F               [ 4] 2311 	ld	l, a
    00000B20 09               [ 8] 2312 	add	hl, bc
    00000B21 4D               [ 4] 2313 	ld	c, l
    00000B22 44               [ 4] 2314 	ld	b, h
    00000B23 F8 17            [12] 2315 	ldhl	sp,	#23
    00000B25 2A               [ 8] 2316 	ld	a,	(hl+)
    00000B26 66               [ 8] 2317 	ld	h, (hl)
    00000B27 6F               [ 4] 2318 	ld	l, a
    00000B28 09               [ 8] 2319 	add	hl, bc
    00000B29 4D               [ 4] 2320 	ld	c, l
    00000B2A 44               [ 4] 2321 	ld	b, h
    00000B2B 0A               [ 8] 2322 	ld	a, (bc)
                                   2323 ;include/collision.h:32: return famidash_metatile_collision[tile_id];
    00000B2C 6F               [ 4] 2324 	ld	l, a
    00000B2D 26 00            [ 8] 2325 	ld	h, #0x00
    00000B2F 11r00r00         [12] 2326 	ld	de, #_famidash_metatile_collision
    00000B32 19               [ 8] 2327 	add	hl, de
    00000B33 4E               [ 8] 2328 	ld	c, (hl)
                                   2329 ;include/player.h:41: return col_at(px, py, map, map_w, map_h);
    00000B34                       2330 00312$:
                                   2331 ;src/player.c:78: IS_HAZARD(col_point(hx1, hy2, map, map_w, map_h)) ||
    00000B34 79               [ 4] 2332 	ld	a, c
    00000B35 D6 04            [ 8] 2333 	sub	a, #0x04
    00000B37 CArEDr0D         [16] 2334 	jp	Z, 00141$
                                   2335 ;include/collision.h:43: if (world_py < 0) return COL_NONE;
    00000B3A F8 28            [12] 2336 	ldhl	sp,	#40
    00000B3C 7E               [ 8] 2337 	ld	a, (hl)
    00000B3D B7               [ 4] 2338 	or	a, a
    00000B3E 28 04            [12] 2339 	jr	Z, 00315$
    00000B40 0E 00            [ 8] 2340 	ld	c, #0x00
    00000B42 18 4F            [12] 2341 	jr	00320$
    00000B44                       2342 00315$:
                                   2343 ;include/collision.h:44: uint16_t mx = world_px >> 4;
    00000B44 F8 1D            [12] 2344 	ldhl	sp,	#29
    00000B46 7E               [ 8] 2345 	ld	a, (hl)
    00000B47 F8 21            [12] 2346 	ldhl	sp,	#33
    00000B49 77               [ 8] 2347 	ld	(hl), a
    00000B4A F8 1E            [12] 2348 	ldhl	sp,	#30
    00000B4C 7E               [ 8] 2349 	ld	a, (hl)
    00000B4D F8 22            [12] 2350 	ldhl	sp,	#34
    00000B4F 77               [ 8] 2351 	ld	(hl), a
                                   2352 ;include/collision.h:45: uint16_t my = (uint16_t)world_py >> 4;
    00000B50 F8 1F            [12] 2353 	ldhl	sp,	#31
    00000B52 2A               [ 8] 2354 	ld	a, (hl+)
    00000B53 5F               [ 4] 2355 	ld	e, a
    00000B54 56               [ 8] 2356 	ld	d, (hl)
                                   2357 ;include/collision.h:47: if (mx >= map_w || my >= map_h) return COL_ALL;
    00000B55 D5               [16] 2358 	push	de
    00000B56 F8 23            [12] 2359 	ldhl	sp,	#35
    00000B58 5D               [ 4] 2360 	ld	e, l
    00000B59 54               [ 4] 2361 	ld	d, h
    00000B5A F8 17            [12] 2362 	ldhl	sp,	#23
    00000B5C 1A               [ 8] 2363 	ld	a, (de)
    00000B5D 13               [ 8] 2364 	inc	de
    00000B5E 96               [ 8] 2365 	sub	a, (hl)
    00000B5F 23               [ 8] 2366 	inc	hl
    00000B60 1A               [ 8] 2367 	ld	a, (de)
    00000B61 9E               [ 8] 2368 	sbc	a, (hl)
    00000B62 D1               [12] 2369 	pop	de
    00000B63 30 09            [12] 2370 	jr	NC, 00317$
    00000B65 F8 13            [12] 2371 	ldhl	sp,	#19
    00000B67 7B               [ 4] 2372 	ld	a, e
    00000B68 96               [ 8] 2373 	sub	a, (hl)
    00000B69 23               [ 8] 2374 	inc	hl
    00000B6A 7A               [ 4] 2375 	ld	a, d
    00000B6B 9E               [ 8] 2376 	sbc	a, (hl)
    00000B6C 38 04            [12] 2377 	jr	C, 00318$
    00000B6E                       2378 00317$:
    00000B6E 0E 07            [ 8] 2379 	ld	c, #0x07
    00000B70 18 21            [12] 2380 	jr	00320$
    00000B72                       2381 00318$:
                                   2382 ;include/collision.h:48: return col_of(map[(uint16_t)my * map_w + mx]);
    00000B72 F8 15            [12] 2383 	ldhl	sp,	#21
    00000B74 2A               [ 8] 2384 	ld	a, (hl+)
    00000B75 4F               [ 4] 2385 	ld	c, a
    00000B76 46               [ 8] 2386 	ld	b, (hl)
    00000B77 CDr00r00         [24] 2387 	call	__mulint
    00000B7A F8 21            [12] 2388 	ldhl	sp,	#33
    00000B7C 2A               [ 8] 2389 	ld	a,	(hl+)
    00000B7D 66               [ 8] 2390 	ld	h, (hl)
    00000B7E 6F               [ 4] 2391 	ld	l, a
    00000B7F 09               [ 8] 2392 	add	hl, bc
    00000B80 4D               [ 4] 2393 	ld	c, l
    00000B81 44               [ 4] 2394 	ld	b, h
    00000B82 F8 17            [12] 2395 	ldhl	sp,	#23
    00000B84 2A               [ 8] 2396 	ld	a,	(hl+)
    00000B85 66               [ 8] 2397 	ld	h, (hl)
    00000B86 6F               [ 4] 2398 	ld	l, a
    00000B87 09               [ 8] 2399 	add	hl, bc
    00000B88 4D               [ 4] 2400 	ld	c, l
    00000B89 44               [ 4] 2401 	ld	b, h
    00000B8A 0A               [ 8] 2402 	ld	a, (bc)
                                   2403 ;include/collision.h:32: return famidash_metatile_collision[tile_id];
    00000B8B 6F               [ 4] 2404 	ld	l, a
    00000B8C 26 00            [ 8] 2405 	ld	h, #0x00
    00000B8E 11r00r00         [12] 2406 	ld	de, #_famidash_metatile_collision
    00000B91 19               [ 8] 2407 	add	hl, de
    00000B92 4E               [ 8] 2408 	ld	c, (hl)
                                   2409 ;include/player.h:41: return col_at(px, py, map, map_w, map_h);
    00000B93                       2410 00320$:
                                   2411 ;src/player.c:78: IS_HAZARD(col_point(hx1, hy2, map, map_w, map_h)) ||
    00000B93 79               [ 4] 2412 	ld	a, c
    00000B94 D6 02            [ 8] 2413 	sub	a, #0x02
    00000B96 CArEDr0D         [16] 2414 	jp	Z, 00141$
                                   2415 ;include/collision.h:43: if (world_py < 0) return COL_NONE;
    00000B99 F8 28            [12] 2416 	ldhl	sp,	#40
    00000B9B 7E               [ 8] 2417 	ld	a, (hl)
    00000B9C B7               [ 4] 2418 	or	a, a
    00000B9D 28 04            [12] 2419 	jr	Z, 00323$
    00000B9F 0E 00            [ 8] 2420 	ld	c, #0x00
    00000BA1 18 4F            [12] 2421 	jr	00328$
    00000BA3                       2422 00323$:
                                   2423 ;include/collision.h:44: uint16_t mx = world_px >> 4;
    00000BA3 F8 1D            [12] 2424 	ldhl	sp,	#29
    00000BA5 7E               [ 8] 2425 	ld	a, (hl)
    00000BA6 F8 21            [12] 2426 	ldhl	sp,	#33
    00000BA8 77               [ 8] 2427 	ld	(hl), a
    00000BA9 F8 1E            [12] 2428 	ldhl	sp,	#30
    00000BAB 7E               [ 8] 2429 	ld	a, (hl)
    00000BAC F8 22            [12] 2430 	ldhl	sp,	#34
    00000BAE 77               [ 8] 2431 	ld	(hl), a
                                   2432 ;include/collision.h:45: uint16_t my = (uint16_t)world_py >> 4;
    00000BAF F8 1F            [12] 2433 	ldhl	sp,	#31
    00000BB1 2A               [ 8] 2434 	ld	a, (hl+)
    00000BB2 5F               [ 4] 2435 	ld	e, a
    00000BB3 56               [ 8] 2436 	ld	d, (hl)
                                   2437 ;include/collision.h:47: if (mx >= map_w || my >= map_h) return COL_ALL;
    00000BB4 D5               [16] 2438 	push	de
    00000BB5 F8 23            [12] 2439 	ldhl	sp,	#35
    00000BB7 5D               [ 4] 2440 	ld	e, l
    00000BB8 54               [ 4] 2441 	ld	d, h
    00000BB9 F8 17            [12] 2442 	ldhl	sp,	#23
    00000BBB 1A               [ 8] 2443 	ld	a, (de)
    00000BBC 13               [ 8] 2444 	inc	de
    00000BBD 96               [ 8] 2445 	sub	a, (hl)
    00000BBE 23               [ 8] 2446 	inc	hl
    00000BBF 1A               [ 8] 2447 	ld	a, (de)
    00000BC0 9E               [ 8] 2448 	sbc	a, (hl)
    00000BC1 D1               [12] 2449 	pop	de
    00000BC2 30 09            [12] 2450 	jr	NC, 00325$
    00000BC4 F8 13            [12] 2451 	ldhl	sp,	#19
    00000BC6 7B               [ 4] 2452 	ld	a, e
    00000BC7 96               [ 8] 2453 	sub	a, (hl)
    00000BC8 23               [ 8] 2454 	inc	hl
    00000BC9 7A               [ 4] 2455 	ld	a, d
    00000BCA 9E               [ 8] 2456 	sbc	a, (hl)
    00000BCB 38 04            [12] 2457 	jr	C, 00326$
    00000BCD                       2458 00325$:
    00000BCD 0E 07            [ 8] 2459 	ld	c, #0x07
    00000BCF 18 21            [12] 2460 	jr	00328$
    00000BD1                       2461 00326$:
                                   2462 ;include/collision.h:48: return col_of(map[(uint16_t)my * map_w + mx]);
    00000BD1 F8 15            [12] 2463 	ldhl	sp,	#21
    00000BD3 2A               [ 8] 2464 	ld	a, (hl+)
    00000BD4 4F               [ 4] 2465 	ld	c, a
    00000BD5 46               [ 8] 2466 	ld	b, (hl)
    00000BD6 CDr00r00         [24] 2467 	call	__mulint
    00000BD9 F8 21            [12] 2468 	ldhl	sp,	#33
    00000BDB 2A               [ 8] 2469 	ld	a,	(hl+)
    00000BDC 66               [ 8] 2470 	ld	h, (hl)
    00000BDD 6F               [ 4] 2471 	ld	l, a
    00000BDE 09               [ 8] 2472 	add	hl, bc
    00000BDF 4D               [ 4] 2473 	ld	c, l
    00000BE0 44               [ 4] 2474 	ld	b, h
    00000BE1 F8 17            [12] 2475 	ldhl	sp,	#23
    00000BE3 2A               [ 8] 2476 	ld	a,	(hl+)
    00000BE4 66               [ 8] 2477 	ld	h, (hl)
    00000BE5 6F               [ 4] 2478 	ld	l, a
    00000BE6 09               [ 8] 2479 	add	hl, bc
    00000BE7 4D               [ 4] 2480 	ld	c, l
    00000BE8 44               [ 4] 2481 	ld	b, h
    00000BE9 0A               [ 8] 2482 	ld	a, (bc)
                                   2483 ;include/collision.h:32: return famidash_metatile_collision[tile_id];
    00000BEA 6F               [ 4] 2484 	ld	l, a
    00000BEB 26 00            [ 8] 2485 	ld	h, #0x00
    00000BED 11r00r00         [12] 2486 	ld	de, #_famidash_metatile_collision
    00000BF0 19               [ 8] 2487 	add	hl, de
    00000BF1 4E               [ 8] 2488 	ld	c, (hl)
                                   2489 ;include/player.h:41: return col_at(px, py, map, map_w, map_h);
    00000BF2                       2490 00328$:
                                   2491 ;src/player.c:78: IS_HAZARD(col_point(hx1, hy2, map, map_w, map_h)) ||
    00000BF2 0D               [ 4] 2492 	dec	c
    00000BF3 CArEDr0D         [16] 2493 	jp	Z, 00141$
                                   2494 ;include/collision.h:43: if (world_py < 0) return COL_NONE;
    00000BF6 F8 28            [12] 2495 	ldhl	sp,	#40
    00000BF8 7E               [ 8] 2496 	ld	a, (hl)
    00000BF9 B7               [ 4] 2497 	or	a, a
    00000BFA 28 04            [12] 2498 	jr	Z, 00331$
    00000BFC 0E 00            [ 8] 2499 	ld	c, #0x00
    00000BFE 18 4D            [12] 2500 	jr	00336$
    00000C00                       2501 00331$:
                                   2502 ;include/collision.h:44: uint16_t mx = world_px >> 4;
    00000C00 F8 23            [12] 2503 	ldhl	sp,	#35
    00000C02 3A               [ 8] 2504 	ld	a, (hl-)
    00000C03 2B               [ 8] 2505 	dec	hl
    00000C04 77               [ 8] 2506 	ld	(hl), a
    00000C05 F8 24            [12] 2507 	ldhl	sp,	#36
    00000C07 3A               [ 8] 2508 	ld	a, (hl-)
    00000C08 2B               [ 8] 2509 	dec	hl
    00000C09 77               [ 8] 2510 	ld	(hl), a
                                   2511 ;include/collision.h:45: uint16_t my = (uint16_t)world_py >> 4;
    00000C0A F8 1F            [12] 2512 	ldhl	sp,	#31
    00000C0C 2A               [ 8] 2513 	ld	a, (hl+)
    00000C0D 5F               [ 4] 2514 	ld	e, a
    00000C0E 56               [ 8] 2515 	ld	d, (hl)
                                   2516 ;include/collision.h:47: if (mx >= map_w || my >= map_h) return COL_ALL;
    00000C0F D5               [16] 2517 	push	de
    00000C10 F8 23            [12] 2518 	ldhl	sp,	#35
    00000C12 5D               [ 4] 2519 	ld	e, l
    00000C13 54               [ 4] 2520 	ld	d, h
    00000C14 F8 17            [12] 2521 	ldhl	sp,	#23
    00000C16 1A               [ 8] 2522 	ld	a, (de)
    00000C17 13               [ 8] 2523 	inc	de
    00000C18 96               [ 8] 2524 	sub	a, (hl)
    00000C19 23               [ 8] 2525 	inc	hl
    00000C1A 1A               [ 8] 2526 	ld	a, (de)
    00000C1B 9E               [ 8] 2527 	sbc	a, (hl)
    00000C1C D1               [12] 2528 	pop	de
    00000C1D 30 09            [12] 2529 	jr	NC, 00333$
    00000C1F F8 13            [12] 2530 	ldhl	sp,	#19
    00000C21 7B               [ 4] 2531 	ld	a, e
    00000C22 96               [ 8] 2532 	sub	a, (hl)
    00000C23 23               [ 8] 2533 	inc	hl
    00000C24 7A               [ 4] 2534 	ld	a, d
    00000C25 9E               [ 8] 2535 	sbc	a, (hl)
    00000C26 38 04            [12] 2536 	jr	C, 00334$
    00000C28                       2537 00333$:
    00000C28 0E 07            [ 8] 2538 	ld	c, #0x07
    00000C2A 18 21            [12] 2539 	jr	00336$
    00000C2C                       2540 00334$:
                                   2541 ;include/collision.h:48: return col_of(map[(uint16_t)my * map_w + mx]);
    00000C2C F8 15            [12] 2542 	ldhl	sp,	#21
    00000C2E 2A               [ 8] 2543 	ld	a, (hl+)
    00000C2F 4F               [ 4] 2544 	ld	c, a
    00000C30 46               [ 8] 2545 	ld	b, (hl)
    00000C31 CDr00r00         [24] 2546 	call	__mulint
    00000C34 F8 21            [12] 2547 	ldhl	sp,	#33
    00000C36 2A               [ 8] 2548 	ld	a,	(hl+)
    00000C37 66               [ 8] 2549 	ld	h, (hl)
    00000C38 6F               [ 4] 2550 	ld	l, a
    00000C39 09               [ 8] 2551 	add	hl, bc
    00000C3A 4D               [ 4] 2552 	ld	c, l
    00000C3B 44               [ 4] 2553 	ld	b, h
    00000C3C F8 17            [12] 2554 	ldhl	sp,	#23
    00000C3E 2A               [ 8] 2555 	ld	a,	(hl+)
    00000C3F 66               [ 8] 2556 	ld	h, (hl)
    00000C40 6F               [ 4] 2557 	ld	l, a
    00000C41 09               [ 8] 2558 	add	hl, bc
    00000C42 4D               [ 4] 2559 	ld	c, l
    00000C43 44               [ 4] 2560 	ld	b, h
    00000C44 0A               [ 8] 2561 	ld	a, (bc)
                                   2562 ;include/collision.h:32: return famidash_metatile_collision[tile_id];
    00000C45 6F               [ 4] 2563 	ld	l, a
    00000C46 26 00            [ 8] 2564 	ld	h, #0x00
    00000C48 11r00r00         [12] 2565 	ld	de, #_famidash_metatile_collision
    00000C4B 19               [ 8] 2566 	add	hl, de
    00000C4C 4E               [ 8] 2567 	ld	c, (hl)
                                   2568 ;include/player.h:41: return col_at(px, py, map, map_w, map_h);
    00000C4D                       2569 00336$:
                                   2570 ;src/player.c:79: IS_HAZARD(col_point(hx2, hy2, map, map_w, map_h))) {
    00000C4D 79               [ 4] 2571 	ld	a, c
    00000C4E D6 08            [ 8] 2572 	sub	a, #0x08
    00000C50 CArEDr0D         [16] 2573 	jp	Z, 00141$
                                   2574 ;include/collision.h:43: if (world_py < 0) return COL_NONE;
    00000C53 F8 28            [12] 2575 	ldhl	sp,	#40
    00000C55 7E               [ 8] 2576 	ld	a, (hl)
    00000C56 B7               [ 4] 2577 	or	a, a
    00000C57 28 04            [12] 2578 	jr	Z, 00339$
    00000C59 0E 00            [ 8] 2579 	ld	c, #0x00
    00000C5B 18 4D            [12] 2580 	jr	00344$
    00000C5D                       2581 00339$:
                                   2582 ;include/collision.h:44: uint16_t mx = world_px >> 4;
    00000C5D F8 23            [12] 2583 	ldhl	sp,	#35
    00000C5F 3A               [ 8] 2584 	ld	a, (hl-)
    00000C60 2B               [ 8] 2585 	dec	hl
    00000C61 77               [ 8] 2586 	ld	(hl), a
    00000C62 F8 24            [12] 2587 	ldhl	sp,	#36
    00000C64 3A               [ 8] 2588 	ld	a, (hl-)
    00000C65 2B               [ 8] 2589 	dec	hl
    00000C66 77               [ 8] 2590 	ld	(hl), a
                                   2591 ;include/collision.h:45: uint16_t my = (uint16_t)world_py >> 4;
    00000C67 F8 1F            [12] 2592 	ldhl	sp,	#31
    00000C69 2A               [ 8] 2593 	ld	a, (hl+)
    00000C6A 5F               [ 4] 2594 	ld	e, a
    00000C6B 56               [ 8] 2595 	ld	d, (hl)
                                   2596 ;include/collision.h:47: if (mx >= map_w || my >= map_h) return COL_ALL;
    00000C6C D5               [16] 2597 	push	de
    00000C6D F8 23            [12] 2598 	ldhl	sp,	#35
    00000C6F 5D               [ 4] 2599 	ld	e, l
    00000C70 54               [ 4] 2600 	ld	d, h
    00000C71 F8 17            [12] 2601 	ldhl	sp,	#23
    00000C73 1A               [ 8] 2602 	ld	a, (de)
    00000C74 13               [ 8] 2603 	inc	de
    00000C75 96               [ 8] 2604 	sub	a, (hl)
    00000C76 23               [ 8] 2605 	inc	hl
    00000C77 1A               [ 8] 2606 	ld	a, (de)
    00000C78 9E               [ 8] 2607 	sbc	a, (hl)
    00000C79 D1               [12] 2608 	pop	de
    00000C7A 30 09            [12] 2609 	jr	NC, 00341$
    00000C7C F8 13            [12] 2610 	ldhl	sp,	#19
    00000C7E 7B               [ 4] 2611 	ld	a, e
    00000C7F 96               [ 8] 2612 	sub	a, (hl)
    00000C80 23               [ 8] 2613 	inc	hl
    00000C81 7A               [ 4] 2614 	ld	a, d
    00000C82 9E               [ 8] 2615 	sbc	a, (hl)
    00000C83 38 04            [12] 2616 	jr	C, 00342$
    00000C85                       2617 00341$:
    00000C85 0E 07            [ 8] 2618 	ld	c, #0x07
    00000C87 18 21            [12] 2619 	jr	00344$
    00000C89                       2620 00342$:
                                   2621 ;include/collision.h:48: return col_of(map[(uint16_t)my * map_w + mx]);
    00000C89 F8 15            [12] 2622 	ldhl	sp,	#21
    00000C8B 2A               [ 8] 2623 	ld	a, (hl+)
    00000C8C 4F               [ 4] 2624 	ld	c, a
    00000C8D 46               [ 8] 2625 	ld	b, (hl)
    00000C8E CDr00r00         [24] 2626 	call	__mulint
    00000C91 F8 21            [12] 2627 	ldhl	sp,	#33
    00000C93 2A               [ 8] 2628 	ld	a,	(hl+)
    00000C94 66               [ 8] 2629 	ld	h, (hl)
    00000C95 6F               [ 4] 2630 	ld	l, a
    00000C96 09               [ 8] 2631 	add	hl, bc
    00000C97 4D               [ 4] 2632 	ld	c, l
    00000C98 44               [ 4] 2633 	ld	b, h
    00000C99 F8 17            [12] 2634 	ldhl	sp,	#23
    00000C9B 2A               [ 8] 2635 	ld	a,	(hl+)
    00000C9C 66               [ 8] 2636 	ld	h, (hl)
    00000C9D 6F               [ 4] 2637 	ld	l, a
    00000C9E 09               [ 8] 2638 	add	hl, bc
    00000C9F 4D               [ 4] 2639 	ld	c, l
    00000CA0 44               [ 4] 2640 	ld	b, h
    00000CA1 0A               [ 8] 2641 	ld	a, (bc)
                                   2642 ;include/collision.h:32: return famidash_metatile_collision[tile_id];
    00000CA2 6F               [ 4] 2643 	ld	l, a
    00000CA3 26 00            [ 8] 2644 	ld	h, #0x00
    00000CA5 11r00r00         [12] 2645 	ld	de, #_famidash_metatile_collision
    00000CA8 19               [ 8] 2646 	add	hl, de
    00000CA9 4E               [ 8] 2647 	ld	c, (hl)
                                   2648 ;include/player.h:41: return col_at(px, py, map, map_w, map_h);
    00000CAA                       2649 00344$:
                                   2650 ;src/player.c:79: IS_HAZARD(col_point(hx2, hy2, map, map_w, map_h))) {
    00000CAA 79               [ 4] 2651 	ld	a, c
    00000CAB D6 03            [ 8] 2652 	sub	a, #0x03
    00000CAD CArEDr0D         [16] 2653 	jp	Z, 00141$
                                   2654 ;include/collision.h:43: if (world_py < 0) return COL_NONE;
    00000CB0 F8 28            [12] 2655 	ldhl	sp,	#40
    00000CB2 7E               [ 8] 2656 	ld	a, (hl)
    00000CB3 B7               [ 4] 2657 	or	a, a
    00000CB4 28 04            [12] 2658 	jr	Z, 00347$
    00000CB6 0E 00            [ 8] 2659 	ld	c, #0x00
    00000CB8 18 4D            [12] 2660 	jr	00352$
    00000CBA                       2661 00347$:
                                   2662 ;include/collision.h:44: uint16_t mx = world_px >> 4;
    00000CBA F8 23            [12] 2663 	ldhl	sp,	#35
    00000CBC 3A               [ 8] 2664 	ld	a, (hl-)
    00000CBD 2B               [ 8] 2665 	dec	hl
    00000CBE 77               [ 8] 2666 	ld	(hl), a
    00000CBF F8 24            [12] 2667 	ldhl	sp,	#36
    00000CC1 3A               [ 8] 2668 	ld	a, (hl-)
    00000CC2 2B               [ 8] 2669 	dec	hl
    00000CC3 77               [ 8] 2670 	ld	(hl), a
                                   2671 ;include/collision.h:45: uint16_t my = (uint16_t)world_py >> 4;
    00000CC4 F8 1F            [12] 2672 	ldhl	sp,	#31
    00000CC6 2A               [ 8] 2673 	ld	a, (hl+)
    00000CC7 5F               [ 4] 2674 	ld	e, a
    00000CC8 56               [ 8] 2675 	ld	d, (hl)
                                   2676 ;include/collision.h:47: if (mx >= map_w || my >= map_h) return COL_ALL;
    00000CC9 D5               [16] 2677 	push	de
    00000CCA F8 23            [12] 2678 	ldhl	sp,	#35
    00000CCC 5D               [ 4] 2679 	ld	e, l
    00000CCD 54               [ 4] 2680 	ld	d, h
    00000CCE F8 17            [12] 2681 	ldhl	sp,	#23
    00000CD0 1A               [ 8] 2682 	ld	a, (de)
    00000CD1 13               [ 8] 2683 	inc	de
    00000CD2 96               [ 8] 2684 	sub	a, (hl)
    00000CD3 23               [ 8] 2685 	inc	hl
    00000CD4 1A               [ 8] 2686 	ld	a, (de)
    00000CD5 9E               [ 8] 2687 	sbc	a, (hl)
    00000CD6 D1               [12] 2688 	pop	de
    00000CD7 30 09            [12] 2689 	jr	NC, 00349$
    00000CD9 F8 13            [12] 2690 	ldhl	sp,	#19
    00000CDB 7B               [ 4] 2691 	ld	a, e
    00000CDC 96               [ 8] 2692 	sub	a, (hl)
    00000CDD 23               [ 8] 2693 	inc	hl
    00000CDE 7A               [ 4] 2694 	ld	a, d
    00000CDF 9E               [ 8] 2695 	sbc	a, (hl)
    00000CE0 38 04            [12] 2696 	jr	C, 00350$
    00000CE2                       2697 00349$:
    00000CE2 0E 07            [ 8] 2698 	ld	c, #0x07
    00000CE4 18 21            [12] 2699 	jr	00352$
    00000CE6                       2700 00350$:
                                   2701 ;include/collision.h:48: return col_of(map[(uint16_t)my * map_w + mx]);
    00000CE6 F8 15            [12] 2702 	ldhl	sp,	#21
    00000CE8 2A               [ 8] 2703 	ld	a, (hl+)
    00000CE9 4F               [ 4] 2704 	ld	c, a
    00000CEA 46               [ 8] 2705 	ld	b, (hl)
    00000CEB CDr00r00         [24] 2706 	call	__mulint
    00000CEE F8 21            [12] 2707 	ldhl	sp,	#33
    00000CF0 2A               [ 8] 2708 	ld	a,	(hl+)
    00000CF1 66               [ 8] 2709 	ld	h, (hl)
    00000CF2 6F               [ 4] 2710 	ld	l, a
    00000CF3 09               [ 8] 2711 	add	hl, bc
    00000CF4 4D               [ 4] 2712 	ld	c, l
    00000CF5 44               [ 4] 2713 	ld	b, h
    00000CF6 F8 17            [12] 2714 	ldhl	sp,	#23
    00000CF8 2A               [ 8] 2715 	ld	a,	(hl+)
    00000CF9 66               [ 8] 2716 	ld	h, (hl)
    00000CFA 6F               [ 4] 2717 	ld	l, a
    00000CFB 09               [ 8] 2718 	add	hl, bc
    00000CFC 4D               [ 4] 2719 	ld	c, l
    00000CFD 44               [ 4] 2720 	ld	b, h
    00000CFE 0A               [ 8] 2721 	ld	a, (bc)
                                   2722 ;include/collision.h:32: return famidash_metatile_collision[tile_id];
    00000CFF 6F               [ 4] 2723 	ld	l, a
    00000D00 26 00            [ 8] 2724 	ld	h, #0x00
    00000D02 11r00r00         [12] 2725 	ld	de, #_famidash_metatile_collision
    00000D05 19               [ 8] 2726 	add	hl, de
    00000D06 4E               [ 8] 2727 	ld	c, (hl)
                                   2728 ;include/player.h:41: return col_at(px, py, map, map_w, map_h);
    00000D07                       2729 00352$:
                                   2730 ;src/player.c:79: IS_HAZARD(col_point(hx2, hy2, map, map_w, map_h))) {
    00000D07 79               [ 4] 2731 	ld	a, c
    00000D08 D6 04            [ 8] 2732 	sub	a, #0x04
    00000D0A CArEDr0D         [16] 2733 	jp	Z, 00141$
                                   2734 ;include/collision.h:43: if (world_py < 0) return COL_NONE;
    00000D0D F8 28            [12] 2735 	ldhl	sp,	#40
    00000D0F 7E               [ 8] 2736 	ld	a, (hl)
    00000D10 B7               [ 4] 2737 	or	a, a
    00000D11 28 04            [12] 2738 	jr	Z, 00355$
    00000D13 0E 00            [ 8] 2739 	ld	c, #0x00
    00000D15 18 4D            [12] 2740 	jr	00360$
    00000D17                       2741 00355$:
                                   2742 ;include/collision.h:44: uint16_t mx = world_px >> 4;
    00000D17 F8 23            [12] 2743 	ldhl	sp,	#35
    00000D19 3A               [ 8] 2744 	ld	a, (hl-)
    00000D1A 2B               [ 8] 2745 	dec	hl
    00000D1B 77               [ 8] 2746 	ld	(hl), a
    00000D1C F8 24            [12] 2747 	ldhl	sp,	#36
    00000D1E 3A               [ 8] 2748 	ld	a, (hl-)
    00000D1F 2B               [ 8] 2749 	dec	hl
    00000D20 77               [ 8] 2750 	ld	(hl), a
                                   2751 ;include/collision.h:45: uint16_t my = (uint16_t)world_py >> 4;
    00000D21 F8 1F            [12] 2752 	ldhl	sp,	#31
    00000D23 2A               [ 8] 2753 	ld	a, (hl+)
    00000D24 5F               [ 4] 2754 	ld	e, a
    00000D25 56               [ 8] 2755 	ld	d, (hl)
                                   2756 ;include/collision.h:47: if (mx >= map_w || my >= map_h) return COL_ALL;
    00000D26 D5               [16] 2757 	push	de
    00000D27 F8 23            [12] 2758 	ldhl	sp,	#35
    00000D29 5D               [ 4] 2759 	ld	e, l
    00000D2A 54               [ 4] 2760 	ld	d, h
    00000D2B F8 17            [12] 2761 	ldhl	sp,	#23
    00000D2D 1A               [ 8] 2762 	ld	a, (de)
    00000D2E 13               [ 8] 2763 	inc	de
    00000D2F 96               [ 8] 2764 	sub	a, (hl)
    00000D30 23               [ 8] 2765 	inc	hl
    00000D31 1A               [ 8] 2766 	ld	a, (de)
    00000D32 9E               [ 8] 2767 	sbc	a, (hl)
    00000D33 D1               [12] 2768 	pop	de
    00000D34 30 09            [12] 2769 	jr	NC, 00357$
    00000D36 F8 13            [12] 2770 	ldhl	sp,	#19
    00000D38 7B               [ 4] 2771 	ld	a, e
    00000D39 96               [ 8] 2772 	sub	a, (hl)
    00000D3A 23               [ 8] 2773 	inc	hl
    00000D3B 7A               [ 4] 2774 	ld	a, d
    00000D3C 9E               [ 8] 2775 	sbc	a, (hl)
    00000D3D 38 04            [12] 2776 	jr	C, 00358$
    00000D3F                       2777 00357$:
    00000D3F 0E 07            [ 8] 2778 	ld	c, #0x07
    00000D41 18 21            [12] 2779 	jr	00360$
    00000D43                       2780 00358$:
                                   2781 ;include/collision.h:48: return col_of(map[(uint16_t)my * map_w + mx]);
    00000D43 F8 15            [12] 2782 	ldhl	sp,	#21
    00000D45 2A               [ 8] 2783 	ld	a, (hl+)
    00000D46 4F               [ 4] 2784 	ld	c, a
    00000D47 46               [ 8] 2785 	ld	b, (hl)
    00000D48 CDr00r00         [24] 2786 	call	__mulint
    00000D4B F8 21            [12] 2787 	ldhl	sp,	#33
    00000D4D 2A               [ 8] 2788 	ld	a,	(hl+)
    00000D4E 66               [ 8] 2789 	ld	h, (hl)
    00000D4F 6F               [ 4] 2790 	ld	l, a
    00000D50 09               [ 8] 2791 	add	hl, bc
    00000D51 4D               [ 4] 2792 	ld	c, l
    00000D52 44               [ 4] 2793 	ld	b, h
    00000D53 F8 17            [12] 2794 	ldhl	sp,	#23
    00000D55 2A               [ 8] 2795 	ld	a,	(hl+)
    00000D56 66               [ 8] 2796 	ld	h, (hl)
    00000D57 6F               [ 4] 2797 	ld	l, a
    00000D58 09               [ 8] 2798 	add	hl, bc
    00000D59 4D               [ 4] 2799 	ld	c, l
    00000D5A 44               [ 4] 2800 	ld	b, h
    00000D5B 0A               [ 8] 2801 	ld	a, (bc)
                                   2802 ;include/collision.h:32: return famidash_metatile_collision[tile_id];
    00000D5C 6F               [ 4] 2803 	ld	l, a
    00000D5D 26 00            [ 8] 2804 	ld	h, #0x00
    00000D5F 11r00r00         [12] 2805 	ld	de, #_famidash_metatile_collision
    00000D62 19               [ 8] 2806 	add	hl, de
    00000D63 4E               [ 8] 2807 	ld	c, (hl)
                                   2808 ;include/player.h:41: return col_at(px, py, map, map_w, map_h);
    00000D64                       2809 00360$:
                                   2810 ;src/player.c:79: IS_HAZARD(col_point(hx2, hy2, map, map_w, map_h))) {
    00000D64 79               [ 4] 2811 	ld	a, c
    00000D65 D6 02            [ 8] 2812 	sub	a, #0x02
    00000D67 CArEDr0D         [16] 2813 	jp	Z, 00141$
                                   2814 ;include/collision.h:43: if (world_py < 0) return COL_NONE;
    00000D6A F8 28            [12] 2815 	ldhl	sp,	#40
    00000D6C 7E               [ 8] 2816 	ld	a, (hl)
    00000D6D B7               [ 4] 2817 	or	a, a
    00000D6E 28 04            [12] 2818 	jr	Z, 00363$
    00000D70 36 00            [12] 2819 	ld	(hl), #0x00
    00000D72 18 73            [12] 2820 	jr	00368$
    00000D74                       2821 00363$:
                                   2822 ;include/collision.h:44: uint16_t mx = world_px >> 4;
                                   2823 ;include/collision.h:45: uint16_t my = (uint16_t)world_py >> 4;
    00000D74 F8 1F            [12] 2824 	ldhl	sp,	#31
    00000D76 2A               [ 8] 2825 	ld	a, (hl+)
    00000D77 23               [ 8] 2826 	inc	hl
    00000D78 32               [ 8] 2827 	ld	(hl-), a
    00000D79 2A               [ 8] 2828 	ld	a, (hl+)
    00000D7A 23               [ 8] 2829 	inc	hl
    00000D7B 77               [ 8] 2830 	ld	(hl), a
                                   2831 ;include/collision.h:47: if (mx >= map_w || my >= map_h) return COL_ALL;
    00000D7C F8 23            [12] 2832 	ldhl	sp,	#35
    00000D7E 5D               [ 4] 2833 	ld	e, l
    00000D7F 54               [ 4] 2834 	ld	d, h
    00000D80 F8 15            [12] 2835 	ldhl	sp,	#21
    00000D82 1A               [ 8] 2836 	ld	a, (de)
    00000D83 13               [ 8] 2837 	inc	de
    00000D84 96               [ 8] 2838 	sub	a, (hl)
    00000D85 23               [ 8] 2839 	inc	hl
    00000D86 1A               [ 8] 2840 	ld	a, (de)
    00000D87 9E               [ 8] 2841 	sbc	a, (hl)
    00000D88 30 0E            [12] 2842 	jr	NC, 00365$
    00000D8A F8 21            [12] 2843 	ldhl	sp,	#33
    00000D8C 5D               [ 4] 2844 	ld	e, l
    00000D8D 54               [ 4] 2845 	ld	d, h
    00000D8E F8 13            [12] 2846 	ldhl	sp,	#19
    00000D90 1A               [ 8] 2847 	ld	a, (de)
    00000D91 13               [ 8] 2848 	inc	de
    00000D92 96               [ 8] 2849 	sub	a, (hl)
    00000D93 23               [ 8] 2850 	inc	hl
    00000D94 1A               [ 8] 2851 	ld	a, (de)
    00000D95 9E               [ 8] 2852 	sbc	a, (hl)
    00000D96 38 06            [12] 2853 	jr	C, 00366$
    00000D98                       2854 00365$:
    00000D98 F8 28            [12] 2855 	ldhl	sp,	#40
    00000D9A 36 07            [12] 2856 	ld	(hl), #0x07
    00000D9C 18 49            [12] 2857 	jr	00368$
    00000D9E                       2858 00366$:
                                   2859 ;include/collision.h:48: return col_of(map[(uint16_t)my * map_w + mx]);
    00000D9E F8 15            [12] 2860 	ldhl	sp,	#21
    00000DA0 2A               [ 8] 2861 	ld	a, (hl+)
    00000DA1 4F               [ 4] 2862 	ld	c, a
    00000DA2 46               [ 8] 2863 	ld	b, (hl)
    00000DA3 F8 21            [12] 2864 	ldhl	sp,	#33
    00000DA5 2A               [ 8] 2865 	ld	a, (hl+)
    00000DA6 5F               [ 4] 2866 	ld	e, a
    00000DA7 56               [ 8] 2867 	ld	d, (hl)
    00000DA8 CDr00r00         [24] 2868 	call	__mulint
    00000DAB F8 1F            [12] 2869 	ldhl	sp,	#31
    00000DAD 79               [ 4] 2870 	ld	a, c
    00000DAE 22               [ 8] 2871 	ld	(hl+), a
    00000DAF 70               [ 8] 2872 	ld	(hl), b
    00000DB0 F8 23            [12] 2873 	ldhl	sp,#35
    00000DB2 2A               [ 8] 2874 	ld	a, (hl+)
    00000DB3 5F               [ 4] 2875 	ld	e, a
    00000DB4 56               [ 8] 2876 	ld	d, (hl)
    00000DB5 F8 1F            [12] 2877 	ldhl	sp,	#31
    00000DB7 2A               [ 8] 2878 	ld	a,	(hl+)
    00000DB8 66               [ 8] 2879 	ld	h, (hl)
    00000DB9 6F               [ 4] 2880 	ld	l, a
    00000DBA 19               [ 8] 2881 	add	hl, de
    00000DBB E5               [16] 2882 	push	hl
    00000DBC 7D               [ 4] 2883 	ld	a, l
    00000DBD F8 23            [12] 2884 	ldhl	sp,	#35
    00000DBF 77               [ 8] 2885 	ld	(hl), a
    00000DC0 E1               [12] 2886 	pop	hl
    00000DC1 7C               [ 4] 2887 	ld	a, h
    00000DC2 F8 22            [12] 2888 	ldhl	sp,	#34
    00000DC4 32               [ 8] 2889 	ld	(hl-), a
    00000DC5 2A               [ 8] 2890 	ld	a, (hl+)
    00000DC6 5F               [ 4] 2891 	ld	e, a
    00000DC7 56               [ 8] 2892 	ld	d, (hl)
    00000DC8 F8 17            [12] 2893 	ldhl	sp,	#23
    00000DCA 2A               [ 8] 2894 	ld	a,	(hl+)
    00000DCB 66               [ 8] 2895 	ld	h, (hl)
    00000DCC 6F               [ 4] 2896 	ld	l, a
    00000DCD 19               [ 8] 2897 	add	hl, de
    00000DCE E5               [16] 2898 	push	hl
    00000DCF 7D               [ 4] 2899 	ld	a, l
    00000DD0 F8 25            [12] 2900 	ldhl	sp,	#37
    00000DD2 77               [ 8] 2901 	ld	(hl), a
    00000DD3 E1               [12] 2902 	pop	hl
    00000DD4 7C               [ 4] 2903 	ld	a, h
    00000DD5 F8 24            [12] 2904 	ldhl	sp,	#36
    00000DD7 32               [ 8] 2905 	ld	(hl-), a
    00000DD8 2A               [ 8] 2906 	ld	a, (hl+)
    00000DD9 5F               [ 4] 2907 	ld	e, a
    00000DDA 56               [ 8] 2908 	ld	d, (hl)
    00000DDB 1A               [ 8] 2909 	ld	a, (de)
                                   2910 ;include/collision.h:32: return famidash_metatile_collision[tile_id];
    00000DDC 6F               [ 4] 2911 	ld	l, a
    00000DDD 26 00            [ 8] 2912 	ld	h, #0x00
    00000DDF 11r00r00         [12] 2913 	ld	de, #_famidash_metatile_collision
    00000DE2 19               [ 8] 2914 	add	hl, de
    00000DE3 7E               [ 8] 2915 	ld	a, (hl)
    00000DE4 F8 28            [12] 2916 	ldhl	sp,	#40
    00000DE6 77               [ 8] 2917 	ld	(hl), a
                                   2918 ;include/player.h:41: return col_at(px, py, map, map_w, map_h);
    00000DE7                       2919 00368$:
                                   2920 ;src/player.c:79: IS_HAZARD(col_point(hx2, hy2, map, map_w, map_h))) {
    00000DE7 F8 28            [12] 2921 	ldhl	sp,	#40
    00000DE9 7E               [ 8] 2922 	ld	a, (hl)
    00000DEA 3D               [ 4] 2923 	dec	a
    00000DEB 20 0B            [12] 2924 	jr	NZ, 00163$
    00000DED                       2925 00141$:
                                   2926 ;src/player.c:80: p->dead = 1;
    00000DED F8 04            [12] 2927 	ldhl	sp,	#4
    00000DEF 2A               [ 8] 2928 	ld	a, (hl+)
    00000DF0 66               [ 8] 2929 	ld	h, (hl)
    00000DF1 6F               [ 4] 2930 	ld	l, a
                                   2931 ;src/player.c:81: return 1;
    00000DF2 3E 01            [ 8] 2932 	ld	a,#0x01
    00000DF4 77               [ 8] 2933 	ld	(hl),a
    00000DF5 C3r11r10         [16] 2934 	jp	00389$
    00000DF8                       2935 00163$:
                                   2936 ;src/player.c:86: if (!player_noclip) {
    00000DF8 FAr00r00         [16] 2937 	ld	a, (#_player_noclip)
    00000DFB B7               [ 4] 2938 	or	a, a
    00000DFC C2rBBr0F         [16] 2939 	jp	NZ, 00174$
                                   2940 ;src/player.c:87: uint8_t cm_l = col_point(p->world_x,              p->world_y + 7, map, map_w, map_h);
    00000DFF F8 0C            [12] 2941 	ldhl	sp,	#12
    00000E01 7E               [ 8] 2942 	ld	a, (hl)
    00000E02 F8 15            [12] 2943 	ldhl	sp,	#21
    00000E04 77               [ 8] 2944 	ld	(hl), a
    00000E05 F8 0D            [12] 2945 	ldhl	sp,	#13
    00000E07 7E               [ 8] 2946 	ld	a, (hl)
    00000E08 F8 16            [12] 2947 	ldhl	sp,	#22
    00000E0A 77               [ 8] 2948 	ld	(hl), a
    00000E0B F8 0E            [12] 2949 	ldhl	sp,	#14
    00000E0D 7E               [ 8] 2950 	ld	a, (hl)
    00000E0E F8 17            [12] 2951 	ldhl	sp,	#23
    00000E10 77               [ 8] 2952 	ld	(hl), a
    00000E11 F8 0F            [12] 2953 	ldhl	sp,	#15
    00000E13 7E               [ 8] 2954 	ld	a, (hl)
    00000E14 F8 18            [12] 2955 	ldhl	sp,	#24
    00000E16 77               [ 8] 2956 	ld	(hl), a
    00000E17 F8 10            [12] 2957 	ldhl	sp,	#16
    00000E19 7E               [ 8] 2958 	ld	a, (hl)
    00000E1A F8 1D            [12] 2959 	ldhl	sp,	#29
    00000E1C 77               [ 8] 2960 	ld	(hl), a
    00000E1D F8 11            [12] 2961 	ldhl	sp,	#17
    00000E1F 7E               [ 8] 2962 	ld	a, (hl)
    00000E20 F8 1E            [12] 2963 	ldhl	sp,	#30
    00000E22 77               [ 8] 2964 	ld	(hl), a
    00000E23 F8 19            [12] 2965 	ldhl	sp,#25
    00000E25 2A               [ 8] 2966 	ld	a, (hl+)
    00000E26 5F               [ 4] 2967 	ld	e, a
    00000E27 56               [ 8] 2968 	ld	d, (hl)
    00000E28 1A               [ 8] 2969 	ld	a, (de)
    00000E29 4F               [ 4] 2970 	ld	c, a
    00000E2A 13               [ 8] 2971 	inc	de
    00000E2B 1A               [ 8] 2972 	ld	a, (de)
    00000E2C 47               [ 4] 2973 	ld	b, a
    00000E2D 21 07 00         [12] 2974 	ld	hl, #0x0007
    00000E30 09               [ 8] 2975 	add	hl, bc
    00000E31 4D               [ 4] 2976 	ld	c, l
    00000E32 7C               [ 4] 2977 	ld	a, h
    00000E33 F8 1F            [12] 2978 	ldhl	sp,	#31
    00000E35 71               [ 8] 2979 	ld	(hl), c
    00000E36 23               [ 8] 2980 	inc	hl
    00000E37 32               [ 8] 2981 	ld	(hl-), a
    00000E38 2A               [ 8] 2982 	ld	a, (hl+)
    00000E39 23               [ 8] 2983 	inc	hl
    00000E3A 32               [ 8] 2984 	ld	(hl-), a
    00000E3B 2A               [ 8] 2985 	ld	a, (hl+)
    00000E3C 23               [ 8] 2986 	inc	hl
    00000E3D 77               [ 8] 2987 	ld	(hl), a
    00000E3E F8 1B            [12] 2988 	ldhl	sp,#27
    00000E40 2A               [ 8] 2989 	ld	a, (hl+)
    00000E41 5F               [ 4] 2990 	ld	e, a
    00000E42 56               [ 8] 2991 	ld	d, (hl)
    00000E43 1A               [ 8] 2992 	ld	a, (de)
    00000E44 F8 23            [12] 2993 	ldhl	sp,	#35
    00000E46 22               [ 8] 2994 	ld	(hl+), a
    00000E47 13               [ 8] 2995 	inc	de
    00000E48 1A               [ 8] 2996 	ld	a, (de)
    00000E49 32               [ 8] 2997 	ld	(hl-), a
    00000E4A 7E               [ 8] 2998 	ld	a, (hl)
    00000E4B F8 1B            [12] 2999 	ldhl	sp,	#27
    00000E4D 77               [ 8] 3000 	ld	(hl), a
    00000E4E F8 24            [12] 3001 	ldhl	sp,	#36
    00000E50 7E               [ 8] 3002 	ld	a, (hl)
    00000E51 F8 1C            [12] 3003 	ldhl	sp,	#28
    00000E53 77               [ 8] 3004 	ld	(hl), a
    00000E54 F8 21            [12] 3005 	ldhl	sp,	#33
    00000E56 2A               [ 8] 3006 	ld	a, (hl+)
    00000E57 CB 7E            [12] 3007 	bit	7, (hl)
    00000E59 28 03            [12] 3008 	jr	Z, 00371$
    00000E5B AF               [ 4] 3009 	xor	a, a
    00000E5C 18 6C            [12] 3010 	jr	00376$
    00000E5E                       3011 00371$:
                                   3012 ;include/collision.h:44: uint16_t mx = world_px >> 4;
    00000E5E F8 1C            [12] 3013 	ldhl	sp,	#28
    00000E60 CB 3E            [16] 3014 	srl	(hl)
    00000E62 2B               [ 8] 3015 	dec	hl
    00000E63 CB 1E            [16] 3016 	rr	(hl)
    00000E65 23               [ 8] 3017 	inc	hl
    00000E66 CB 3E            [16] 3018 	srl	(hl)
    00000E68 2B               [ 8] 3019 	dec	hl
    00000E69 CB 1E            [16] 3020 	rr	(hl)
    00000E6B 23               [ 8] 3021 	inc	hl
    00000E6C CB 3E            [16] 3022 	srl	(hl)
    00000E6E 2B               [ 8] 3023 	dec	hl
    00000E6F CB 1E            [16] 3024 	rr	(hl)
    00000E71 23               [ 8] 3025 	inc	hl
    00000E72 CB 3E            [16] 3026 	srl	(hl)
    00000E74 2B               [ 8] 3027 	dec	hl
    00000E75 CB 1E            [16] 3028 	rr	(hl)
                                   3029 ;include/collision.h:45: uint16_t my = (uint16_t)world_py >> 4;
    00000E77 F8 21            [12] 3030 	ldhl	sp,	#33
    00000E79 2A               [ 8] 3031 	ld	a, (hl+)
    00000E7A 5F               [ 4] 3032 	ld	e, a
    00000E7B 56               [ 8] 3033 	ld	d, (hl)
    00000E7C CB 3A            [ 8] 3034 	srl	d
    00000E7E CB 1B            [ 8] 3035 	rr	e
    00000E80 CB 3A            [ 8] 3036 	srl	d
    00000E82 CB 1B            [ 8] 3037 	rr	e
    00000E84 CB 3A            [ 8] 3038 	srl	d
    00000E86 CB 1B            [ 8] 3039 	rr	e
    00000E88 CB 3A            [ 8] 3040 	srl	d
    00000E8A CB 1B            [ 8] 3041 	rr	e
                                   3042 ;src/player.c:87: uint8_t cm_l = col_point(p->world_x,              p->world_y + 7, map, map_w, map_h);
    00000E8C D5               [16] 3043 	push	de
    00000E8D F8 1D            [12] 3044 	ldhl	sp,	#29
    00000E8F 5D               [ 4] 3045 	ld	e, l
    00000E90 54               [ 4] 3046 	ld	d, h
    00000E91 F8 10            [12] 3047 	ldhl	sp,	#16
    00000E93 1A               [ 8] 3048 	ld	a, (de)
    00000E94 13               [ 8] 3049 	inc	de
    00000E95 96               [ 8] 3050 	sub	a, (hl)
    00000E96 23               [ 8] 3051 	inc	hl
    00000E97 1A               [ 8] 3052 	ld	a, (de)
    00000E98 9E               [ 8] 3053 	sbc	a, (hl)
    00000E99 D1               [12] 3054 	pop	de
    00000E9A 30 09            [12] 3055 	jr	NC, 00373$
    00000E9C F8 0C            [12] 3056 	ldhl	sp,	#12
    00000E9E 7B               [ 4] 3057 	ld	a, e
    00000E9F 96               [ 8] 3058 	sub	a, (hl)
    00000EA0 23               [ 8] 3059 	inc	hl
    00000EA1 7A               [ 4] 3060 	ld	a, d
    00000EA2 9E               [ 8] 3061 	sbc	a, (hl)
    00000EA3 38 04            [12] 3062 	jr	C, 00374$
    00000EA5                       3063 00373$:
    00000EA5 3E 07            [ 8] 3064 	ld	a, #0x07
    00000EA7 18 21            [12] 3065 	jr	00376$
    00000EA9                       3066 00374$:
    00000EA9 F8 0E            [12] 3067 	ldhl	sp,	#14
    00000EAB 2A               [ 8] 3068 	ld	a, (hl+)
    00000EAC 4F               [ 4] 3069 	ld	c, a
    00000EAD 46               [ 8] 3070 	ld	b, (hl)
    00000EAE CDr00r00         [24] 3071 	call	__mulint
    00000EB1 F8 1B            [12] 3072 	ldhl	sp,	#27
    00000EB3 2A               [ 8] 3073 	ld	a,	(hl+)
    00000EB4 66               [ 8] 3074 	ld	h, (hl)
    00000EB5 6F               [ 4] 3075 	ld	l, a
    00000EB6 09               [ 8] 3076 	add	hl, bc
    00000EB7 4D               [ 4] 3077 	ld	c, l
    00000EB8 44               [ 4] 3078 	ld	b, h
    00000EB9 F8 10            [12] 3079 	ldhl	sp,	#16
    00000EBB 2A               [ 8] 3080 	ld	a,	(hl+)
    00000EBC 66               [ 8] 3081 	ld	h, (hl)
    00000EBD 6F               [ 4] 3082 	ld	l, a
    00000EBE 09               [ 8] 3083 	add	hl, bc
    00000EBF 4D               [ 4] 3084 	ld	c, l
    00000EC0 44               [ 4] 3085 	ld	b, h
    00000EC1 0A               [ 8] 3086 	ld	a, (bc)
    00000EC2 6F               [ 4] 3087 	ld	l, a
    00000EC3 26 00            [ 8] 3088 	ld	h, #0x00
    00000EC5 11r00r00         [12] 3089 	ld	de, #_famidash_metatile_collision
    00000EC8 19               [ 8] 3090 	add	hl, de
    00000EC9 7E               [ 8] 3091 	ld	a, (hl)
    00000ECA                       3092 00376$:
    00000ECA F8 28            [12] 3093 	ldhl	sp,	#40
    00000ECC 77               [ 8] 3094 	ld	(hl), a
                                   3095 ;src/player.c:88: uint8_t cm_r = col_point(p->world_x + PLAYER_SIZE, p->world_y + 7, map, map_w, map_h);
    00000ECD F8 23            [12] 3096 	ldhl	sp,#35
    00000ECF 2A               [ 8] 3097 	ld	a, (hl+)
    00000ED0 5F               [ 4] 3098 	ld	e, a
    00000ED1 56               [ 8] 3099 	ld	d, (hl)
    00000ED2 21 0F 00         [12] 3100 	ld	hl, #0x000f
    00000ED5 19               [ 8] 3101 	add	hl, de
    00000ED6 E5               [16] 3102 	push	hl
    00000ED7 7D               [ 4] 3103 	ld	a, l
    00000ED8 F8 23            [12] 3104 	ldhl	sp,	#35
    00000EDA 77               [ 8] 3105 	ld	(hl), a
    00000EDB E1               [12] 3106 	pop	hl
    00000EDC 7C               [ 4] 3107 	ld	a, h
    00000EDD F8 22            [12] 3108 	ldhl	sp,	#34
    00000EDF 32               [ 8] 3109 	ld	(hl-), a
    00000EE0 2A               [ 8] 3110 	ld	a, (hl+)
    00000EE1 23               [ 8] 3111 	inc	hl
    00000EE2 32               [ 8] 3112 	ld	(hl-), a
    00000EE3 2A               [ 8] 3113 	ld	a, (hl+)
    00000EE4 23               [ 8] 3114 	inc	hl
    00000EE5 77               [ 8] 3115 	ld	(hl), a
    00000EE6 F8 1F            [12] 3116 	ldhl	sp,	#31
    00000EE8 2A               [ 8] 3117 	ld	a, (hl+)
    00000EE9 4F               [ 4] 3118 	ld	c, a
    00000EEA 46               [ 8] 3119 	ld	b, (hl)
    00000EEB CB 78            [ 8] 3120 	bit	7, b
    00000EED 28 07            [12] 3121 	jr	Z, 00379$
    00000EEF F8 24            [12] 3122 	ldhl	sp,	#36
    00000EF1 36 00            [12] 3123 	ld	(hl), #0x00
    00000EF3 C3r79r0F         [16] 3124 	jp	00384$
    00000EF6                       3125 00379$:
                                   3126 ;include/collision.h:44: uint16_t mx = world_px >> 4;
    00000EF6 F8 24            [12] 3127 	ldhl	sp,	#36
    00000EF8 CB 3E            [16] 3128 	srl	(hl)
    00000EFA 2B               [ 8] 3129 	dec	hl
    00000EFB CB 1E            [16] 3130 	rr	(hl)
    00000EFD 23               [ 8] 3131 	inc	hl
    00000EFE CB 3E            [16] 3132 	srl	(hl)
    00000F00 2B               [ 8] 3133 	dec	hl
    00000F01 CB 1E            [16] 3134 	rr	(hl)
    00000F03 23               [ 8] 3135 	inc	hl
    00000F04 CB 3E            [16] 3136 	srl	(hl)
    00000F06 2B               [ 8] 3137 	dec	hl
    00000F07 CB 1E            [16] 3138 	rr	(hl)
    00000F09 23               [ 8] 3139 	inc	hl
    00000F0A CB 3E            [16] 3140 	srl	(hl)
    00000F0C 2B               [ 8] 3141 	dec	hl
    00000F0D CB 1E            [16] 3142 	rr	(hl)
                                   3143 ;include/collision.h:45: uint16_t my = (uint16_t)world_py >> 4;
    00000F0F F8 1F            [12] 3144 	ldhl	sp,	#31
    00000F11 2A               [ 8] 3145 	ld	a, (hl+)
    00000F12 23               [ 8] 3146 	inc	hl
    00000F13 32               [ 8] 3147 	ld	(hl-), a
    00000F14 2A               [ 8] 3148 	ld	a, (hl+)
    00000F15 23               [ 8] 3149 	inc	hl
    00000F16 77               [ 8] 3150 	ld	(hl), a
    00000F17 CB 3E            [16] 3151 	srl	(hl)
    00000F19 2B               [ 8] 3152 	dec	hl
    00000F1A CB 1E            [16] 3153 	rr	(hl)
    00000F1C 23               [ 8] 3154 	inc	hl
    00000F1D CB 3E            [16] 3155 	srl	(hl)
    00000F1F 2B               [ 8] 3156 	dec	hl
    00000F20 CB 1E            [16] 3157 	rr	(hl)
    00000F22 23               [ 8] 3158 	inc	hl
    00000F23 CB 3E            [16] 3159 	srl	(hl)
    00000F25 2B               [ 8] 3160 	dec	hl
    00000F26 CB 1E            [16] 3161 	rr	(hl)
    00000F28 23               [ 8] 3162 	inc	hl
    00000F29 CB 3E            [16] 3163 	srl	(hl)
    00000F2B 2B               [ 8] 3164 	dec	hl
    00000F2C CB 1E            [16] 3165 	rr	(hl)
                                   3166 ;src/player.c:88: uint8_t cm_r = col_point(p->world_x + PLAYER_SIZE, p->world_y + 7, map, map_w, map_h);
    00000F2E F8 23            [12] 3167 	ldhl	sp,	#35
    00000F30 5D               [ 4] 3168 	ld	e, l
    00000F31 54               [ 4] 3169 	ld	d, h
    00000F32 F8 17            [12] 3170 	ldhl	sp,	#23
    00000F34 1A               [ 8] 3171 	ld	a, (de)
    00000F35 13               [ 8] 3172 	inc	de
    00000F36 96               [ 8] 3173 	sub	a, (hl)
    00000F37 23               [ 8] 3174 	inc	hl
    00000F38 1A               [ 8] 3175 	ld	a, (de)
    00000F39 9E               [ 8] 3176 	sbc	a, (hl)
    00000F3A 30 0E            [12] 3177 	jr	NC, 00381$
    00000F3C F8 21            [12] 3178 	ldhl	sp,	#33
    00000F3E 5D               [ 4] 3179 	ld	e, l
    00000F3F 54               [ 4] 3180 	ld	d, h
    00000F40 F8 15            [12] 3181 	ldhl	sp,	#21
    00000F42 1A               [ 8] 3182 	ld	a, (de)
    00000F43 13               [ 8] 3183 	inc	de
    00000F44 96               [ 8] 3184 	sub	a, (hl)
    00000F45 23               [ 8] 3185 	inc	hl
    00000F46 1A               [ 8] 3186 	ld	a, (de)
    00000F47 9E               [ 8] 3187 	sbc	a, (hl)
    00000F48 38 06            [12] 3188 	jr	C, 00382$
    00000F4A                       3189 00381$:
    00000F4A F8 24            [12] 3190 	ldhl	sp,	#36
    00000F4C 36 07            [12] 3191 	ld	(hl), #0x07
    00000F4E 18 29            [12] 3192 	jr	00384$
    00000F50                       3193 00382$:
    00000F50 F8 17            [12] 3194 	ldhl	sp,	#23
    00000F52 2A               [ 8] 3195 	ld	a, (hl+)
    00000F53 4F               [ 4] 3196 	ld	c, a
    00000F54 46               [ 8] 3197 	ld	b, (hl)
    00000F55 F8 21            [12] 3198 	ldhl	sp,	#33
    00000F57 2A               [ 8] 3199 	ld	a, (hl+)
    00000F58 5F               [ 4] 3200 	ld	e, a
    00000F59 56               [ 8] 3201 	ld	d, (hl)
    00000F5A CDr00r00         [24] 3202 	call	__mulint
    00000F5D F8 23            [12] 3203 	ldhl	sp,	#35
    00000F5F 2A               [ 8] 3204 	ld	a,	(hl+)
    00000F60 66               [ 8] 3205 	ld	h, (hl)
    00000F61 6F               [ 4] 3206 	ld	l, a
    00000F62 09               [ 8] 3207 	add	hl, bc
    00000F63 4D               [ 4] 3208 	ld	c, l
    00000F64 44               [ 4] 3209 	ld	b, h
    00000F65 F8 1D            [12] 3210 	ldhl	sp,	#29
    00000F67 2A               [ 8] 3211 	ld	a,	(hl+)
    00000F68 66               [ 8] 3212 	ld	h, (hl)
    00000F69 6F               [ 4] 3213 	ld	l, a
    00000F6A 09               [ 8] 3214 	add	hl, bc
    00000F6B 4D               [ 4] 3215 	ld	c, l
    00000F6C 44               [ 4] 3216 	ld	b, h
    00000F6D 0A               [ 8] 3217 	ld	a, (bc)
    00000F6E 6F               [ 4] 3218 	ld	l, a
    00000F6F 26 00            [ 8] 3219 	ld	h, #0x00
    00000F71 11r00r00         [12] 3220 	ld	de, #_famidash_metatile_collision
    00000F74 19               [ 8] 3221 	add	hl, de
    00000F75 7E               [ 8] 3222 	ld	a, (hl)
    00000F76 F8 24            [12] 3223 	ldhl	sp,	#36
    00000F78 77               [ 8] 3224 	ld	(hl), a
    00000F79                       3225 00384$:
                                   3226 ;src/player.c:89: if (IS_SOLID(cm_l) || IS_SOLID(cm_r)) {
    00000F79 F8 28            [12] 3227 	ldhl	sp,	#40
    00000F7B 7E               [ 8] 3228 	ld	a, (hl)
    00000F7C D6 07            [ 8] 3229 	sub	a, #0x07
    00000F7E 28 31            [12] 3230 	jr	Z, 00164$
    00000F80 F8 28            [12] 3231 	ldhl	sp,	#40
    00000F82 7E               [ 8] 3232 	ld	a, (hl)
    00000F83 D6 09            [ 8] 3233 	sub	a, #0x09
    00000F85 28 2A            [12] 3234 	jr	Z, 00164$
    00000F87 F8 28            [12] 3235 	ldhl	sp,	#40
    00000F89 7E               [ 8] 3236 	ld	a, (hl)
    00000F8A D6 05            [ 8] 3237 	sub	a, #0x05
    00000F8C 28 23            [12] 3238 	jr	Z, 00164$
    00000F8E F8 28            [12] 3239 	ldhl	sp,	#40
    00000F90 7E               [ 8] 3240 	ld	a, (hl)
    00000F91 D6 06            [ 8] 3241 	sub	a, #0x06
    00000F93 28 1C            [12] 3242 	jr	Z, 00164$
    00000F95 F8 24            [12] 3243 	ldhl	sp,	#36
    00000F97 7E               [ 8] 3244 	ld	a, (hl)
    00000F98 D6 07            [ 8] 3245 	sub	a, #0x07
    00000F9A 28 15            [12] 3246 	jr	Z, 00164$
    00000F9C F8 24            [12] 3247 	ldhl	sp,	#36
    00000F9E 7E               [ 8] 3248 	ld	a, (hl)
    00000F9F D6 09            [ 8] 3249 	sub	a, #0x09
    00000FA1 28 0E            [12] 3250 	jr	Z, 00164$
    00000FA3 F8 24            [12] 3251 	ldhl	sp,	#36
    00000FA5 7E               [ 8] 3252 	ld	a, (hl)
    00000FA6 D6 05            [ 8] 3253 	sub	a, #0x05
    00000FA8 28 07            [12] 3254 	jr	Z, 00164$
    00000FAA F8 24            [12] 3255 	ldhl	sp,	#36
    00000FAC 7E               [ 8] 3256 	ld	a, (hl)
    00000FAD D6 06            [ 8] 3257 	sub	a, #0x06
    00000FAF 20 0A            [12] 3258 	jr	NZ, 00174$
    00000FB1                       3259 00164$:
                                   3260 ;src/player.c:90: p->dead = 1;
    00000FB1 F8 04            [12] 3261 	ldhl	sp,	#4
    00000FB3 2A               [ 8] 3262 	ld	a, (hl+)
    00000FB4 66               [ 8] 3263 	ld	h, (hl)
    00000FB5 6F               [ 4] 3264 	ld	l, a
                                   3265 ;src/player.c:91: return 1;
    00000FB6 3E 01            [ 8] 3266 	ld	a,#0x01
    00000FB8 77               [ 8] 3267 	ld	(hl),a
    00000FB9 18 56            [12] 3268 	jr	00389$
    00000FBB                       3269 00174$:
                                   3270 ;src/player.c:96: if (!player_noclip && p->world_y > (int16_t)((uint16_t)map_h << 4)) {
    00000FBB FAr00r00         [16] 3271 	ld	a, (#_player_noclip)
    00000FBE B7               [ 4] 3272 	or	a, a
    00000FBF 20 4F            [12] 3273 	jr	NZ, 00176$
    00000FC1 F8 19            [12] 3274 	ldhl	sp,#25
    00000FC3 2A               [ 8] 3275 	ld	a, (hl+)
    00000FC4 5F               [ 4] 3276 	ld	e, a
    00000FC5 56               [ 8] 3277 	ld	d, (hl)
    00000FC6 1A               [ 8] 3278 	ld	a, (de)
    00000FC7 F8 23            [12] 3279 	ldhl	sp,	#35
    00000FC9 22               [ 8] 3280 	ld	(hl+), a
    00000FCA 13               [ 8] 3281 	inc	de
    00000FCB 1A               [ 8] 3282 	ld	a, (de)
    00000FCC 77               [ 8] 3283 	ld	(hl), a
    00000FCD F8 0C            [12] 3284 	ldhl	sp,	#12
    00000FCF 7E               [ 8] 3285 	ld	a, (hl)
    00000FD0 F8 21            [12] 3286 	ldhl	sp,	#33
    00000FD2 77               [ 8] 3287 	ld	(hl), a
    00000FD3 F8 0D            [12] 3288 	ldhl	sp,	#13
    00000FD5 7E               [ 8] 3289 	ld	a, (hl)
    00000FD6 F8 22            [12] 3290 	ldhl	sp,	#34
    00000FD8 77               [ 8] 3291 	ld	(hl), a
    00000FD9 3E 04            [ 8] 3292 	ld	a, #0x04
    00000FDB                       3293 01221$:
    00000FDB F8 21            [12] 3294 	ldhl	sp,	#33
    00000FDD CB 26            [16] 3295 	sla	(hl)
    00000FDF 23               [ 8] 3296 	inc	hl
    00000FE0 CB 16            [16] 3297 	rl	(hl)
    00000FE2 3D               [ 4] 3298 	dec	a
    00000FE3 20 F6            [12] 3299 	jr	NZ, 01221$
    00000FE5 F8 21            [12] 3300 	ldhl	sp,	#33
    00000FE7 5D               [ 4] 3301 	ld	e, l
    00000FE8 54               [ 4] 3302 	ld	d, h
    00000FE9 F8 23            [12] 3303 	ldhl	sp,	#35
    00000FEB 1A               [ 8] 3304 	ld	a, (de)
    00000FEC 13               [ 8] 3305 	inc	de
    00000FED 96               [ 8] 3306 	sub	a, (hl)
    00000FEE 23               [ 8] 3307 	inc	hl
    00000FEF 1A               [ 8] 3308 	ld	a, (de)
    00000FF0 9E               [ 8] 3309 	sbc	a, (hl)
    00000FF1 1A               [ 8] 3310 	ld	a, (de)
    00000FF2 57               [ 4] 3311 	ld	d, a
    00000FF3 5E               [ 8] 3312 	ld	e, (hl)
    00000FF4 CB 7B            [ 8] 3313 	bit	7, e
    00000FF6 28 07            [12] 3314 	jr	Z, 01222$
    00000FF8 CB 7A            [ 8] 3315 	bit	7, d
    00000FFA 20 08            [12] 3316 	jr	NZ, 01223$
    00000FFC BF               [ 4] 3317 	cp	a, a
    00000FFD 18 05            [12] 3318 	jr	01223$
    00000FFF                       3319 01222$:
    00000FFF CB 7A            [ 8] 3320 	bit	7, d
    00001001 28 01            [12] 3321 	jr	Z, 01223$
    00001003 37               [ 4] 3322 	scf
    00001004                       3323 01223$:
    00001004 30 0A            [12] 3324 	jr	NC, 00176$
                                   3325 ;src/player.c:97: p->dead = 1;
    00001006 F8 04            [12] 3326 	ldhl	sp,	#4
    00001008 2A               [ 8] 3327 	ld	a, (hl+)
    00001009 66               [ 8] 3328 	ld	h, (hl)
    0000100A 6F               [ 4] 3329 	ld	l, a
                                   3330 ;src/player.c:98: return 1;
    0000100B 3E 01            [ 8] 3331 	ld	a,#0x01
    0000100D 77               [ 8] 3332 	ld	(hl),a
    0000100E 18 01            [12] 3333 	jr	00389$
    00001010                       3334 00176$:
                                   3335 ;src/player.c:101: return 0;
    00001010 AF               [ 4] 3336 	xor	a, a
    00001011                       3337 00389$:
                                   3338 ;src/player.c:102: }
    00001011 E8 29            [16] 3339 	add	sp, #41
    00001013 E1               [12] 3340 	pop	hl
    00001014 E8 06            [16] 3341 	add	sp, #6
    00001016 E9               [ 4] 3342 	jp	(hl)
                                   3343 	.area _HOME
                                   3344 ;--------------------------------------------------------
                                   3345 ; code
                                   3346 ;--------------------------------------------------------
                                   3347 	.area _CODE
                                   3348 ;include/collision.h:31: static inline uint8_t col_of(uint8_t tile_id) {
                                   3349 ;	---------------------------------
                                   3350 ; Function col_of
                                   3351 ; ---------------------------------
    00000000                       3352 _col_of:
    00000000 4F               [ 4] 3353 	ld	c, a
                                   3354 ;include/collision.h:32: return famidash_metatile_collision[tile_id];
    00000001 21r00r00         [12] 3355 	ld	hl, #_famidash_metatile_collision
    00000004 06 00            [ 8] 3356 	ld	b, #0x00
    00000006 09               [ 8] 3357 	add	hl, bc
    00000007 7E               [ 8] 3358 	ld	a, (hl)
                                   3359 ;include/collision.h:33: }
    00000008 C9               [16] 3360 	ret
                                   3361 ;include/collision.h:36: static inline uint8_t col_at(
                                   3362 ;	---------------------------------
                                   3363 ; Function col_at
                                   3364 ; ---------------------------------
    00000009                       3365 _col_at:
    00000009 E8 FC            [16] 3366 	add	sp, #-4
    0000000B F8 02            [12] 3367 	ldhl	sp,	#2
    0000000D 7B               [ 4] 3368 	ld	a, e
    0000000E 22               [ 8] 3369 	ld	(hl+), a
    0000000F 72               [ 8] 3370 	ld	(hl), d
                                   3371 ;include/collision.h:43: if (world_py < 0) return COL_NONE;
    00000010 60               [ 4] 3372 	ld	h, b
    00000011 CB 7C            [ 8] 3373 	bit	7, h
    00000013 28 03            [12] 3374 	jr	Z, 00102$
    00000015 AF               [ 4] 3375 	xor	a, a
    00000016 18 6E            [12] 3376 	jr	00107$
    00000018                       3377 00102$:
                                   3378 ;include/collision.h:44: uint16_t mx = world_px >> 4;
    00000018 F8 02            [12] 3379 	ldhl	sp,	#2
    0000001A 3A               [ 8] 3380 	ld	a, (hl-)
    0000001B 2B               [ 8] 3381 	dec	hl
    0000001C 77               [ 8] 3382 	ld	(hl), a
    0000001D F8 03            [12] 3383 	ldhl	sp,	#3
    0000001F 3A               [ 8] 3384 	ld	a, (hl-)
    00000020 2B               [ 8] 3385 	dec	hl
    00000021 77               [ 8] 3386 	ld	(hl), a
    00000022 CB 3E            [16] 3387 	srl	(hl)
    00000024 2B               [ 8] 3388 	dec	hl
    00000025 CB 1E            [16] 3389 	rr	(hl)
    00000027 23               [ 8] 3390 	inc	hl
    00000028 CB 3E            [16] 3391 	srl	(hl)
    0000002A 2B               [ 8] 3392 	dec	hl
    0000002B CB 1E            [16] 3393 	rr	(hl)
    0000002D 23               [ 8] 3394 	inc	hl
    0000002E CB 3E            [16] 3395 	srl	(hl)
    00000030 2B               [ 8] 3396 	dec	hl
    00000031 CB 1E            [16] 3397 	rr	(hl)
    00000033 23               [ 8] 3398 	inc	hl
    00000034 CB 3E            [16] 3399 	srl	(hl)
    00000036 2B               [ 8] 3400 	dec	hl
    00000037 CB 1E            [16] 3401 	rr	(hl)
                                   3402 ;include/collision.h:45: uint16_t my = (uint16_t)world_py >> 4;
    00000039 59               [ 4] 3403 	ld	e, c
    0000003A 50               [ 4] 3404 	ld	d, b
    0000003B CB 3A            [ 8] 3405 	srl	d
    0000003D CB 1B            [ 8] 3406 	rr	e
    0000003F CB 3A            [ 8] 3407 	srl	d
    00000041 CB 1B            [ 8] 3408 	rr	e
    00000043 CB 3A            [ 8] 3409 	srl	d
    00000045 CB 1B            [ 8] 3410 	rr	e
    00000047 CB 3A            [ 8] 3411 	srl	d
    00000049 CB 1B            [ 8] 3412 	rr	e
                                   3413 ;include/collision.h:47: if (mx >= map_w || my >= map_h) return COL_ALL;
    0000004B D5               [16] 3414 	push	de
    0000004C F8 02            [12] 3415 	ldhl	sp,	#2
    0000004E 5D               [ 4] 3416 	ld	e, l
    0000004F 54               [ 4] 3417 	ld	d, h
    00000050 F8 0A            [12] 3418 	ldhl	sp,	#10
    00000052 1A               [ 8] 3419 	ld	a, (de)
    00000053 13               [ 8] 3420 	inc	de
    00000054 96               [ 8] 3421 	sub	a, (hl)
    00000055 23               [ 8] 3422 	inc	hl
    00000056 1A               [ 8] 3423 	ld	a, (de)
    00000057 9E               [ 8] 3424 	sbc	a, (hl)
    00000058 D1               [12] 3425 	pop	de
    00000059 30 09            [12] 3426 	jr	NC, 00103$
    0000005B F8 0A            [12] 3427 	ldhl	sp,	#10
    0000005D 7B               [ 4] 3428 	ld	a, e
    0000005E 96               [ 8] 3429 	sub	a, (hl)
    0000005F 23               [ 8] 3430 	inc	hl
    00000060 7A               [ 4] 3431 	ld	a, d
    00000061 9E               [ 8] 3432 	sbc	a, (hl)
    00000062 38 04            [12] 3433 	jr	C, 00104$
    00000064                       3434 00103$:
    00000064 3E 07            [ 8] 3435 	ld	a, #0x07
    00000066 18 1E            [12] 3436 	jr	00107$
    00000068                       3437 00104$:
                                   3438 ;include/collision.h:48: return col_of(map[(uint16_t)my * map_w + mx]);
    00000068 F8 08            [12] 3439 	ldhl	sp,	#8
    0000006A 2A               [ 8] 3440 	ld	a, (hl+)
    0000006B 4F               [ 4] 3441 	ld	c, a
    0000006C 46               [ 8] 3442 	ld	b, (hl)
    0000006D CDr00r00         [24] 3443 	call	__mulint
    00000070 E1               [12] 3444 	pop	hl
    00000071 E5               [16] 3445 	push	hl
    00000072 09               [ 8] 3446 	add	hl, bc
    00000073 4D               [ 4] 3447 	ld	c, l
    00000074 44               [ 4] 3448 	ld	b, h
    00000075 F8 06            [12] 3449 	ldhl	sp,	#6
    00000077 2A               [ 8] 3450 	ld	a,	(hl+)
    00000078 66               [ 8] 3451 	ld	h, (hl)
    00000079 6F               [ 4] 3452 	ld	l, a
    0000007A 09               [ 8] 3453 	add	hl, bc
    0000007B 4D               [ 4] 3454 	ld	c, l
    0000007C 44               [ 4] 3455 	ld	b, h
    0000007D 0A               [ 8] 3456 	ld	a, (bc)
    0000007E 4F               [ 4] 3457 	ld	c, a
                                   3458 ;include/collision.h:32: return famidash_metatile_collision[tile_id];
    0000007F 21r00r00         [12] 3459 	ld	hl, #_famidash_metatile_collision
    00000082 06 00            [ 8] 3460 	ld	b, #0x00
    00000084 09               [ 8] 3461 	add	hl, bc
    00000085 7E               [ 8] 3462 	ld	a, (hl)
                                   3463 ;include/collision.h:48: return col_of(map[(uint16_t)my * map_w + mx]);
    00000086                       3464 00107$:
                                   3465 ;include/collision.h:49: }
    00000086 E8 04            [16] 3466 	add	sp, #4
    00000088 E1               [12] 3467 	pop	hl
    00000089 E8 06            [16] 3468 	add	sp, #6
    0000008B E9               [ 4] 3469 	jp	(hl)
                                   3470 ;include/player.h:28: static inline void player_init(Player *p, uint16_t start_x, int16_t start_y) {
                                   3471 ;	---------------------------------
                                   3472 ; Function player_init
                                   3473 ; ---------------------------------
    0000008C                       3474 _player_init:
                                   3475 ;include/player.h:29: p->world_x   = start_x;
    0000008C 6B               [ 4] 3476 	ld	l, e
    0000008D 62               [ 4] 3477 	ld	h, d
    0000008E 79               [ 4] 3478 	ld	a, c
    0000008F 22               [ 8] 3479 	ld	(hl+), a
    00000090 70               [ 8] 3480 	ld	(hl), b
                                   3481 ;include/player.h:30: p->world_y   = start_y;
    00000091 4B               [ 4] 3482 	ld	c, e
    00000092 42               [ 4] 3483 	ld	b, d
    00000093 03               [ 8] 3484 	inc	bc
    00000094 03               [ 8] 3485 	inc	bc
    00000095 F8 02            [12] 3486 	ldhl	sp,	#2
    00000097 2A               [ 8] 3487 	ld	a, (hl+)
    00000098 02               [ 8] 3488 	ld	(bc), a
    00000099 03               [ 8] 3489 	inc	bc
    0000009A 7E               [ 8] 3490 	ld	a, (hl)
    0000009B 02               [ 8] 3491 	ld	(bc), a
                                   3492 ;include/player.h:31: p->vel_y     = 0;
    0000009C 21 04 00         [12] 3493 	ld	hl, #0x0004
    0000009F 19               [ 8] 3494 	add	hl, de
    000000A0 AF               [ 4] 3495 	xor	a, a
    000000A1 22               [ 8] 3496 	ld	(hl+), a
    000000A2 77               [ 8] 3497 	ld	(hl), a
                                   3498 ;include/player.h:32: p->on_ground = 0;
    000000A3 21 06 00         [12] 3499 	ld	hl, #0x0006
    000000A6 19               [ 8] 3500 	add	hl, de
    000000A7 36 00            [12] 3501 	ld	(hl), #0x00
                                   3502 ;include/player.h:33: p->dead      = 0;
    000000A9 21 07 00         [12] 3503 	ld	hl, #0x0007
    000000AC 19               [ 8] 3504 	add	hl, de
    000000AD 36 00            [12] 3505 	ld	(hl), #0x00
                                   3506 ;include/player.h:34: }
    000000AF E1               [12] 3507 	pop	hl
    000000B0 F1               [12] 3508 	pop	af
    000000B1 E9               [ 4] 3509 	jp	(hl)
                                   3510 ;include/player.h:37: static inline uint8_t col_point(
                                   3511 ;	---------------------------------
                                   3512 ; Function col_point
                                   3513 ; ---------------------------------
    000000B2                       3514 _col_point:
    000000B2 E8 F8            [16] 3515 	add	sp, #-8
    000000B4 F8 06            [12] 3516 	ldhl	sp,	#6
    000000B6 7B               [ 4] 3517 	ld	a, e
    000000B7 22               [ 8] 3518 	ld	(hl+), a
    000000B8 72               [ 8] 3519 	ld	(hl), d
                                   3520 ;include/player.h:41: return col_at(px, py, map, map_w, map_h);
    000000B9 F8 0C            [12] 3521 	ldhl	sp,	#12
    000000BB 7E               [ 8] 3522 	ld	a, (hl)
    000000BC F8 00            [12] 3523 	ldhl	sp,	#0
    000000BE 77               [ 8] 3524 	ld	(hl), a
    000000BF F8 0D            [12] 3525 	ldhl	sp,	#13
    000000C1 7E               [ 8] 3526 	ld	a, (hl)
    000000C2 F8 01            [12] 3527 	ldhl	sp,	#1
    000000C4 77               [ 8] 3528 	ld	(hl), a
    000000C5 F8 0A            [12] 3529 	ldhl	sp,	#10
    000000C7 7E               [ 8] 3530 	ld	a, (hl)
    000000C8 F8 02            [12] 3531 	ldhl	sp,	#2
    000000CA 77               [ 8] 3532 	ld	(hl), a
    000000CB F8 0B            [12] 3533 	ldhl	sp,	#11
    000000CD 7E               [ 8] 3534 	ld	a, (hl)
    000000CE F8 03            [12] 3535 	ldhl	sp,	#3
    000000D0 77               [ 8] 3536 	ld	(hl), a
                                   3537 ;include/collision.h:43: if (world_py < 0) return COL_NONE;
    000000D1 60               [ 4] 3538 	ld	h, b
    000000D2 CB 7C            [ 8] 3539 	bit	7, h
    000000D4 28 04            [12] 3540 	jr	Z, 00102$
    000000D6 0E 00            [ 8] 3541 	ld	c, #0x00
    000000D8 18 6E            [12] 3542 	jr	00107$
    000000DA                       3543 00102$:
                                   3544 ;include/collision.h:44: uint16_t mx = world_px >> 4;
    000000DA F8 06            [12] 3545 	ldhl	sp,	#6
    000000DC 3A               [ 8] 3546 	ld	a, (hl-)
    000000DD 2B               [ 8] 3547 	dec	hl
    000000DE 77               [ 8] 3548 	ld	(hl), a
    000000DF F8 07            [12] 3549 	ldhl	sp,	#7
    000000E1 3A               [ 8] 3550 	ld	a, (hl-)
    000000E2 2B               [ 8] 3551 	dec	hl
    000000E3 77               [ 8] 3552 	ld	(hl), a
    000000E4 CB 3E            [16] 3553 	srl	(hl)
    000000E6 2B               [ 8] 3554 	dec	hl
    000000E7 CB 1E            [16] 3555 	rr	(hl)
    000000E9 23               [ 8] 3556 	inc	hl
    000000EA CB 3E            [16] 3557 	srl	(hl)
    000000EC 2B               [ 8] 3558 	dec	hl
    000000ED CB 1E            [16] 3559 	rr	(hl)
    000000EF 23               [ 8] 3560 	inc	hl
    000000F0 CB 3E            [16] 3561 	srl	(hl)
    000000F2 2B               [ 8] 3562 	dec	hl
    000000F3 CB 1E            [16] 3563 	rr	(hl)
    000000F5 23               [ 8] 3564 	inc	hl
    000000F6 CB 3E            [16] 3565 	srl	(hl)
    000000F8 2B               [ 8] 3566 	dec	hl
    000000F9 CB 1E            [16] 3567 	rr	(hl)
                                   3568 ;include/collision.h:45: uint16_t my = (uint16_t)world_py >> 4;
    000000FB 59               [ 4] 3569 	ld	e, c
    000000FC 50               [ 4] 3570 	ld	d, b
    000000FD CB 3A            [ 8] 3571 	srl	d
    000000FF CB 1B            [ 8] 3572 	rr	e
    00000101 CB 3A            [ 8] 3573 	srl	d
    00000103 CB 1B            [ 8] 3574 	rr	e
    00000105 CB 3A            [ 8] 3575 	srl	d
    00000107 CB 1B            [ 8] 3576 	rr	e
    00000109 CB 3A            [ 8] 3577 	srl	d
    0000010B CB 1B            [ 8] 3578 	rr	e
                                   3579 ;include/collision.h:47: if (mx >= map_w || my >= map_h) return COL_ALL;
    0000010D D5               [16] 3580 	push	de
    0000010E F8 06            [12] 3581 	ldhl	sp,	#6
    00000110 5D               [ 4] 3582 	ld	e, l
    00000111 54               [ 4] 3583 	ld	d, h
    00000112 F8 02            [12] 3584 	ldhl	sp,	#2
    00000114 1A               [ 8] 3585 	ld	a, (de)
    00000115 13               [ 8] 3586 	inc	de
    00000116 96               [ 8] 3587 	sub	a, (hl)
    00000117 23               [ 8] 3588 	inc	hl
    00000118 1A               [ 8] 3589 	ld	a, (de)
    00000119 9E               [ 8] 3590 	sbc	a, (hl)
    0000011A D1               [12] 3591 	pop	de
    0000011B 30 09            [12] 3592 	jr	NC, 00104$
    0000011D F8 0E            [12] 3593 	ldhl	sp,	#14
    0000011F 7B               [ 4] 3594 	ld	a, e
    00000120 96               [ 8] 3595 	sub	a, (hl)
    00000121 23               [ 8] 3596 	inc	hl
    00000122 7A               [ 4] 3597 	ld	a, d
    00000123 9E               [ 8] 3598 	sbc	a, (hl)
    00000124 38 04            [12] 3599 	jr	C, 00105$
    00000126                       3600 00104$:
    00000126 0E 07            [ 8] 3601 	ld	c, #0x07
    00000128 18 1E            [12] 3602 	jr	00107$
    0000012A                       3603 00105$:
                                   3604 ;include/collision.h:48: return col_of(map[(uint16_t)my * map_w + mx]);
    0000012A C1               [12] 3605 	pop	bc
    0000012B C5               [16] 3606 	push	bc
    0000012C CDr00r00         [24] 3607 	call	__mulint
    0000012F F8 04            [12] 3608 	ldhl	sp,	#4
    00000131 2A               [ 8] 3609 	ld	a,	(hl+)
    00000132 66               [ 8] 3610 	ld	h, (hl)
    00000133 6F               [ 4] 3611 	ld	l, a
    00000134 09               [ 8] 3612 	add	hl, bc
    00000135 4D               [ 4] 3613 	ld	c, l
    00000136 44               [ 4] 3614 	ld	b, h
    00000137 F8 02            [12] 3615 	ldhl	sp,	#2
    00000139 2A               [ 8] 3616 	ld	a,	(hl+)
    0000013A 66               [ 8] 3617 	ld	h, (hl)
    0000013B 6F               [ 4] 3618 	ld	l, a
    0000013C 09               [ 8] 3619 	add	hl, bc
    0000013D 4D               [ 4] 3620 	ld	c, l
    0000013E 44               [ 4] 3621 	ld	b, h
    0000013F 0A               [ 8] 3622 	ld	a, (bc)
    00000140 4F               [ 4] 3623 	ld	c, a
                                   3624 ;include/collision.h:32: return famidash_metatile_collision[tile_id];
    00000141 21r00r00         [12] 3625 	ld	hl, #_famidash_metatile_collision
    00000144 06 00            [ 8] 3626 	ld	b, #0x00
    00000146 09               [ 8] 3627 	add	hl, bc
    00000147 4E               [ 8] 3628 	ld	c, (hl)
                                   3629 ;include/player.h:41: return col_at(px, py, map, map_w, map_h);
    00000148                       3630 00107$:
    00000148 79               [ 4] 3631 	ld	a, c
                                   3632 ;include/player.h:42: }
    00000149 E8 08            [16] 3633 	add	sp, #8
    0000014B E1               [12] 3634 	pop	hl
    0000014C E8 06            [16] 3635 	add	sp, #6
    0000014E E9               [ 4] 3636 	jp	(hl)
                                   3637 ;include/player.h:53: static inline int16_t player_screen_y(const Player *p, uint16_t cam_py) {
                                   3638 ;	---------------------------------
                                   3639 ; Function player_screen_y
                                   3640 ; ---------------------------------
    0000014F                       3641 _player_screen_y:
                                   3642 ;include/player.h:54: return p->world_y - (int16_t)cam_py;
    0000014F 6B               [ 4] 3643 	ld	l, e
    00000150 62               [ 4] 3644 	ld	h, d
    00000151 23               [ 8] 3645 	inc	hl
    00000152 23               [ 8] 3646 	inc	hl
    00000153 2A               [ 8] 3647 	ld	a, (hl+)
    00000154 6E               [ 8] 3648 	ld	l, (hl)
    00000155 91               [ 4] 3649 	sub	a, c
    00000156 4F               [ 4] 3650 	ld	c, a
    00000157 7D               [ 4] 3651 	ld	a, l
    00000158 98               [ 4] 3652 	sbc	a, b
    00000159 47               [ 4] 3653 	ld	b, a
                                   3654 ;include/player.h:55: }
    0000015A C9               [16] 3655 	ret
                                   3656 	.area _CODE
                                   3657 	.area _INITIALIZER
    00000000                       3658 __xinit__player_noclip:
    00000000 00                    3659 	.db #0x00	; 0
                                   3660 	.area _CABS (ABS)
