;--------------------------------------------------------
; File Created by SDCC : free open source ISO C Compiler
; Version 4.5.1 #15267 (MINGW64)
;--------------------------------------------------------
	.module player
	
;--------------------------------------------------------
; Public variables in this module
;--------------------------------------------------------
	.globl b___func_player_update
	.globl ___func_player_update
	.globl _col_at
	.globl _player_noclip
	.globl b_player_init
	.globl _player_init
	.globl b_player_screen_y
	.globl _player_screen_y
	.globl b_player_update
	.globl _player_update
;--------------------------------------------------------
; special function registers
;--------------------------------------------------------
	.area _HRAM
;--------------------------------------------------------
; ram data
;--------------------------------------------------------
	.area _DATA
;--------------------------------------------------------
; ram data
;--------------------------------------------------------
	.area _INITIALIZED
_player_noclip::
	.ds 1
;--------------------------------------------------------
; absolute external ram data
;--------------------------------------------------------
	.area _DABS (ABS)
;--------------------------------------------------------
; global & static initialisations
;--------------------------------------------------------
	.area _HOME
	.area _GSINIT
	.area _GSFINAL
	.area _GSINIT
;--------------------------------------------------------
; Home
;--------------------------------------------------------
	.area _HOME
	.area _HOME
;--------------------------------------------------------
; code
;--------------------------------------------------------
	.area _CODE_1
;src/player.c:5: BANKREF(player_update)
;	---------------------------------
; Function __func_player_update
; ---------------------------------
	b___func_player_update	= 1
___func_player_update::
	.local b___func_player_update 
	___bank_player_update = b___func_player_update 
	.globl ___bank_player_update 
;src/player.c:9: void player_init(Player *p, uint16_t start_x, int16_t start_y) __banked {
;	---------------------------------
; Function player_init
; ---------------------------------
	b_player_init	= 1
_player_init::
;src/player.c:10: p->world_x = start_x;
	ldhl	sp,	#6
	ld	a, (hl+)
	ld	e, a
	ld	a, (hl+)
	ld	d, a
	ld	a, (hl+)
	ld	(de), a
	inc	de
;src/player.c:11: p->world_y = start_y;
	ld	a, (hl+)
	ld	(de), a
	dec	de
	ld	c, e
	ld	b, d
	inc	bc
	inc	bc
	ld	a, (hl+)
	ld	(bc), a
	inc	bc
	ld	a, (hl)
	ld	(bc), a
;src/player.c:12: p->vel_y = 0;
	ld	hl, #0x0004
	add	hl, de
	xor	a, a
	ld	(hl+), a
	ld	(hl), a
;src/player.c:13: p->on_ground = 0;
	ld	hl, #0x0006
	add	hl, de
	ld	(hl), #0x00
;src/player.c:14: p->dead = 0;
	ld	hl, #0x0007
	add	hl, de
	ld	(hl), #0x00
;src/player.c:15: p->anim_timer = 0;
	ld	hl, #0x000b
	add	hl, de
	xor	a, a
	ld	(hl+), a
	ld	(hl), a
;src/player.c:16: p->anim_frame = 0;
	ld	hl, #0x000a
	add	hl, de
	ld	(hl), #0x00
;src/player.c:17: p->gravity_flipped = 0;
	ld	hl, #0x0008
	add	hl, de
	ld	(hl), #0x00
;src/player.c:18: p->mode = MODE_CUBE;
	ld	hl, #0x0009
	add	hl, de
	ld	(hl), #0x00
;src/player.c:19: }
	ret
;src/player.c:21: int16_t player_screen_y(const Player *p, uint16_t cam_y) __banked {
;	---------------------------------
; Function player_screen_y
; ---------------------------------
	b_player_screen_y	= 1
_player_screen_y::
;src/player.c:22: return (int16_t)p->world_y - (int16_t)cam_y;
	ldhl	sp,	#6
	ld	a, (hl+)
	ld	c, (hl)
	ld	l, a
	ld	h, c
	inc	hl
	inc	hl
	ld	a, (hl+)
	ld	b, (hl)
	ldhl	sp,	#8
	ld	c, (hl)
	inc	hl
	ld	e, (hl)
	sub	a, c
	ld	c, a
	ld	a, b
	sbc	a, e
	ld	b, a
;src/player.c:23: }
	ret
;src/player.c:25: uint8_t player_update(
;	---------------------------------
; Function player_update
; ---------------------------------
	b_player_update	= 1
_player_update::
	add	sp, #-30
;src/player.c:33: if (p->dead) return 1;
	ldhl	sp,#36
	ld	a, (hl+)
	ld	e, a
	ld	d, (hl)
	ld	hl, #0x0007
	add	hl, de
	push	hl
	ld	a, l
	ldhl	sp,	#10
	ld	(hl), a
	pop	hl
	ld	a, h
	ldhl	sp,	#9
	ld	(hl-), a
	ld	a, (hl+)
	ld	e, a
	ld	d, (hl)
	ld	a, (de)
	ldhl	sp,	#29
	ld	(hl), a
	or	a, a
	jr	Z, 00102$
	ld	a, #0x01
	jp	00258$
00102$:
;src/player.c:36: if (p->mode == MODE_SHIP) {
	ldhl	sp,#36
	ld	a, (hl+)
	ld	e, a
	ld	d, (hl)
	ld	hl, #0x0009
	add	hl, de
	inc	sp
	inc	sp
	ld	e, l
	ld	d, h
	push	de
	ld	a, (de)
	ld	c, a
;src/player.c:37: if (joy & J_A) {
	ldhl	sp,	#38
;src/player.c:38: p->vel_y += (p->gravity_flipped) ? -SHIP_THRUST : SHIP_THRUST;
	ld	a, (hl-)
	dec	hl
	ld	b, a
	ld	a, (hl+)
	ld	e, a
	ld	d, (hl)
	ld	hl, #0x0004
	add	hl, de
	push	hl
	ld	a, l
	ldhl	sp,	#12
	ld	(hl), a
	pop	hl
	ld	a, h
	ldhl	sp,	#11
	ld	(hl), a
	ldhl	sp,#36
	ld	a, (hl+)
	ld	e, a
	ld	d, (hl)
	ld	hl, #0x0008
	add	hl, de
	push	hl
	ld	a, l
	ldhl	sp,	#14
	ld	(hl), a
	pop	hl
	ld	a, h
	ldhl	sp,	#13
	ld	(hl), a
;src/player.c:46: if (!p->on_ground) {
	ldhl	sp,#36
	ld	a, (hl+)
	ld	e, a
	ld	d, (hl)
	ld	hl, #0x0006
	add	hl, de
	push	hl
	ld	a, l
	ldhl	sp,	#16
	ld	(hl), a
	pop	hl
	ld	a, h
	ldhl	sp,	#15
;src/player.c:37: if (joy & J_A) {
	ld	(hl+), a
	ld	a, b
	and	a, #0x10
	ld	(hl), a
;src/player.c:36: if (p->mode == MODE_SHIP) {
	dec	c
	jp	NZ, 00120$
;src/player.c:42: if (p->vel_y > SHIP_MAX_VEL) p->vel_y = SHIP_MAX_VEL;
	ldhl	sp,#10
	ld	a, (hl+)
	ld	e, a
;src/player.c:81: int16_t effective_vel = p->gravity_flipped ? -p->vel_y : p->vel_y;
	ld	a, (hl+)
	ld	d, a
	ld	a, (de)
	ld	b, a
	inc	de
	ld	a, (de)
	ld	e, (hl)
	inc	hl
	ld	d, (hl)
	push	af
	ld	a, (de)
	ld	c, a
	pop	af
;src/player.c:38: p->vel_y += (p->gravity_flipped) ? -SHIP_THRUST : SHIP_THRUST;
	ld	e, b
	ld	d, a
;src/player.c:37: if (joy & J_A) {
	ldhl	sp,	#16
	ld	a, (hl)
	or	a, a
	jr	Z, 00104$
;src/player.c:38: p->vel_y += (p->gravity_flipped) ? -SHIP_THRUST : SHIP_THRUST;
	ld	a, c
	or	a, a
	jr	Z, 00260$
	ld	hl, #0x0008
	jr	00261$
00260$:
	ld	hl, #0xfff8
00261$:
	add	hl, de
	ld	c, l
	ld	b, h
	ldhl	sp,	#10
	ld	a, (hl+)
	ld	h, (hl)
	ld	l, a
	ld	a, c
	ld	(hl+), a
	ld	(hl), b
	jr	00105$
00104$:
;src/player.c:40: p->vel_y += (p->gravity_flipped) ? -SHIP_GRAVITY : SHIP_GRAVITY;
	ld	a, c
	or	a, a
	jr	Z, 00262$
	ld	hl, #0xfffb
	jr	00263$
00262$:
	ld	hl, #0x0005
00263$:
	add	hl, de
	ld	c, l
	ld	b, h
	ldhl	sp,	#10
	ld	a, (hl+)
	ld	h, (hl)
	ld	l, a
	ld	a, c
	ld	(hl+), a
	ld	(hl), b
00105$:
;src/player.c:42: if (p->vel_y > SHIP_MAX_VEL) p->vel_y = SHIP_MAX_VEL;
	ldhl	sp,#10
	ld	a, (hl+)
	ld	e, a
	ld	d, (hl)
	ld	a, (de)
	ld	c, a
	inc	de
	ld	a, (de)
	ld	b, a
	ld	e, b
	ld	d, #0x00
	ld	a, #0x40
	cp	a, c
	ld	a, #0x00
	sbc	a, b
	bit	7, e
	jr	Z, 01188$
	bit	7, d
	jr	NZ, 01189$
	cp	a, a
	jr	01189$
01188$:
	bit	7, d
	jr	Z, 01189$
	scf
01189$:
	jr	NC, 00107$
	ldhl	sp,	#10
	ld	a, (hl+)
	ld	h, (hl)
	ld	l, a
	ld	a, #0x40
	ld	(hl+), a
	ld	(hl), #0x00
00107$:
;src/player.c:43: if (p->vel_y < -SHIP_MAX_VEL) p->vel_y = -SHIP_MAX_VEL;
	ldhl	sp,#10
	ld	a, (hl+)
	ld	e, a
	ld	d, (hl)
	ld	a, (de)
	ld	c, a
	inc	de
	ld	a, (de)
	ld	b, a
	ld	a, c
	sub	a, #0xc0
	ld	a, b
	rla
	ccf
	rra
	sbc	a, #0x7f
	jp	NC, 00121$
	ld	a, (hl-)
	ld	l, (hl)
	ld	h, a
	ld	a, #0xc0
	ld	(hl+), a
	ld	(hl), #0xff
	jr	00121$
00120$:
;src/player.c:46: if (!p->on_ground) {
	ldhl	sp,#14
	ld	a, (hl+)
	ld	e, a
	ld	d, (hl)
	ld	a, (de)
	or	a, a
	jr	NZ, 00121$
;src/player.c:47: if (p->gravity_flipped) {
	dec	hl
	dec	hl
	dec	hl
	ld	a, (hl+)
	ld	e, a
;src/player.c:42: if (p->vel_y > SHIP_MAX_VEL) p->vel_y = SHIP_MAX_VEL;
	ld	a, (hl-)
	dec	hl
	dec	hl
	ld	d, a
	ld	a, (de)
	ld	c, a
	ld	a, (hl+)
	ld	e, a
	ld	d, (hl)
	ld	a, (de)
	ld	l, a
	inc	de
	ld	a, (de)
;src/player.c:38: p->vel_y += (p->gravity_flipped) ? -SHIP_THRUST : SHIP_THRUST;
	ld	h, a
;src/player.c:47: if (p->gravity_flipped) {
	ld	a, c
	or	a, a
	jr	Z, 00115$
;src/player.c:48: p->vel_y -= GRAVITY;
	ld	bc, #0xfff6
	add	hl,bc
	ld	c, l
	ld	b, h
	ldhl	sp,	#10
	ld	a, (hl+)
	ld	h, (hl)
	ld	l, a
	ld	a, c
	ld	(hl+), a
	ld	(hl), b
;src/player.c:49: if (p->vel_y < -MAX_FALL_SPEED) p->vel_y = -MAX_FALL_SPEED;
	ld	a, c
	sub	a, #0x97
	ld	a, b
	rla
	ccf
	rra
	sbc	a, #0x7f
	jr	NC, 00121$
	ldhl	sp,	#10
	ld	a, (hl+)
	ld	h, (hl)
	ld	l, a
	ld	a, #0x97
	ld	(hl+), a
	ld	(hl), #0xff
	jr	00121$
00115$:
;src/player.c:51: p->vel_y += GRAVITY;
	ld	bc, #0x000a
	add	hl, bc
	ld	c, l
	ld	b, h
	ldhl	sp,	#10
	ld	a, (hl+)
	ld	h, (hl)
	ld	l, a
	ld	a, c
	ld	(hl+), a
	ld	(hl), b
;src/player.c:52: if (p->vel_y > MAX_FALL_SPEED) p->vel_y = MAX_FALL_SPEED;
	ld	e, b
	ld	d, #0x00
	ld	a, #0x69
	cp	a, c
	ld	a, #0x00
	sbc	a, b
	bit	7, e
	jr	Z, 01190$
	bit	7, d
	jr	NZ, 01191$
	cp	a, a
	jr	01191$
01190$:
	bit	7, d
	jr	Z, 01191$
	scf
01191$:
	jr	NC, 00121$
	ldhl	sp,	#10
	ld	a, (hl+)
	ld	h, (hl)
	ld	l, a
	ld	a, #0x69
	ld	(hl+), a
	ld	(hl), #0x00
00121$:
;src/player.c:60: p->world_y += (int8_t)(p->vel_y >> 4);
	ldhl	sp,#36
	ld	a, (hl+)
	ld	e, a
	ld	d, (hl)
	ld	hl, #0x0002
	add	hl, de
	push	hl
	ld	a, l
	ldhl	sp,	#19
	ld	(hl), a
	pop	hl
	ld	a, h
	ldhl	sp,	#18
	ld	(hl), a
;src/player.c:58: if (player_noclip) {
	ld	a, (#_player_noclip)
	or	a, a
	jr	Z, 00125$
;src/player.c:59: if (joy & J_A) p->vel_y = (p->gravity_flipped) ? -JUMP_FORCE : JUMP_FORCE;
	ldhl	sp,	#16
	ld	a, (hl)
	or	a, a
	jr	Z, 00123$
	ldhl	sp,#12
	ld	a, (hl+)
	ld	e, a
	ld	d, (hl)
	ld	a, (de)
	ldhl	sp,	#29
	ld	(hl), a
	or	a, a
	jr	Z, 00264$
	ld	(hl), #0x5d
	jr	00265$
00264$:
	ldhl	sp,	#29
	ld	(hl), #0xa3
00265$:
	ldhl	sp,	#29
	ld	a, (hl)
	ld	c, a
	rlca
	sbc	a, a
	ld	b, a
	ldhl	sp,	#10
	ld	a, (hl+)
	ld	h, (hl)
	ld	l, a
	ld	a, c
	ld	(hl+), a
	ld	(hl), b
00123$:
;src/player.c:60: p->world_y += (int8_t)(p->vel_y >> 4);
	ldhl	sp,#17
	ld	a, (hl+)
	ld	e, a
	ld	d, (hl)
	ld	a, (de)
	ld	c, a
	inc	de
	ld	a, (de)
	ld	b, a
	ldhl	sp,#10
	ld	a, (hl+)
	ld	e, a
	ld	d, (hl)
	ld	a, (de)
	ld	l, a
	inc	de
	ld	a, (de)
	ld	h, a
	xor	a, a
	add	hl, hl
	jr	nc,01192$
	dec	a
01192$:
	add	hl, hl
	rla
	add	hl, hl
	rla
	add	hl, hl
	rla
	ld	e, a
	ld	a, h
	ld	l, a
	rlca
	sbc	a, a
	ld	h, a
	add	hl, bc
	ld	c, l
	ld	b, h
	ldhl	sp,	#17
	ld	a, (hl+)
	ld	h, (hl)
	ld	l, a
	ld	a, c
	ld	(hl+), a
	ld	(hl), b
;src/player.c:61: return 0;
	xor	a, a
	jp	00258$
00125$:
;src/player.c:65: if (p->mode == MODE_CUBE && (joy & J_A) && p->on_ground) {
	pop	de
	push	de
	ld	a, (de)
	or	a, a
	jr	NZ, 00127$
	ldhl	sp,	#16
	ld	a, (hl)
	or	a, a
	jr	Z, 00127$
	dec	hl
	dec	hl
	ld	a, (hl+)
	ld	e, a
	ld	d, (hl)
	ld	a, (de)
	or	a, a
	jr	Z, 00127$
;src/player.c:66: p->vel_y = (p->gravity_flipped) ? -JUMP_FORCE : JUMP_FORCE;
	dec	hl
	dec	hl
	dec	hl
	ld	a, (hl+)
	ld	e, a
	ld	d, (hl)
	ld	a, (de)
	or	a, a
	ld	a, #0x5d
	jr	NZ, 00267$
	ld	a, #0xa3
00267$:
	ld	c, a
	rlca
	sbc	a, a
	ld	b, a
	ldhl	sp,	#10
	ld	a, (hl+)
	ld	h, (hl)
	ld	l, a
	ld	a, c
	ld	(hl+), a
	ld	(hl), b
;src/player.c:67: p->on_ground = 0;
	ldhl	sp,	#14
	ld	a, (hl+)
	ld	h, (hl)
	ld	l, a
	ld	(hl), #0x00
00127$:
;src/player.c:72: uint8_t f_h = col_at(p->world_x + PLAYER_SIZE, p->world_y + PLAYER_HBOX, map, map_w, map_h, map_bank);
	ldhl	sp,#17
	ld	a, (hl+)
	ld	e, a
	ld	d, (hl)
	ld	a, (de)
	ld	c, a
	inc	de
	ld	a, (de)
	ld	b, a
	ld	hl, #0x0006
	add	hl, bc
	ld	c, l
	ld	b, h
	ldhl	sp,	#36
	ld	a, (hl)
	ldhl	sp,	#28
	ld	(hl), a
	ldhl	sp,	#37
	ld	a, (hl)
	ldhl	sp,	#29
	ld	(hl-), a
	ld	a, (hl+)
	ld	e, a
	ld	d, (hl)
	ld	a, (de)
	ld	l, a
	inc	de
	ld	a, (de)
	ld	h, a
	ld	de, #0x000f
	add	hl, de
	ld	e, l
	ld	d, h
	ldhl	sp,	#45
	ld	a, (hl-)
	push	af
	inc	sp
	ld	a, (hl-)
	ld	l, (hl)
	ld	h, a
	push	hl
	ldhl	sp,	#44
	ld	a, (hl+)
	ld	h, (hl)
	ld	l, a
	push	hl
	ldhl	sp,	#44
	ld	a, (hl+)
	ld	h, (hl)
	ld	l, a
	push	hl
	call	_col_at
	ldhl	sp,	#27
	ld	(hl), a
;src/player.c:73: uint8_t f_f = col_at(p->world_x + PLAYER_SIZE, p->world_y + PLAYER_SIZE - PLAYER_HBOX, map, map_w, map_h, map_bank);
	ldhl	sp,#17
	ld	a, (hl+)
	ld	e, a
	ld	d, (hl)
	ld	a, (de)
	ld	c, a
	inc	de
	ld	a, (de)
	ld	b, a
	ld	hl, #0x0009
	add	hl, bc
	ld	c, l
	ld	b, h
	ldhl	sp,#28
	ld	a, (hl+)
	ld	e, a
	ld	d, (hl)
	ld	a, (de)
	ld	l, a
	inc	de
	ld	a, (de)
	ld	h, a
	ld	de, #0x000f
	add	hl, de
	ld	e, l
	ld	d, h
	ldhl	sp,	#45
	ld	a, (hl-)
	push	af
	inc	sp
	ld	a, (hl-)
	ld	l, (hl)
	ld	h, a
	push	hl
	ldhl	sp,	#44
	ld	a, (hl+)
	ld	h, (hl)
	ld	l, a
	push	hl
	ldhl	sp,	#44
	ld	a, (hl+)
	ld	h, (hl)
	ld	l, a
	push	hl
	call	_col_at
	ld	c, a
;src/player.c:74: if (IS_SOLID(f_h) || IS_SOLID(f_f)) {
	ldhl	sp,	#27
	ld	a, (hl)
	sub	a, #0x07
	jr	Z, 00130$
	ldhl	sp,	#27
	ld	a, (hl)
	sub	a, #0x09
	jr	Z, 00130$
	ldhl	sp,	#27
	ld	a, (hl)
	sub	a, #0x05
	jr	Z, 00130$
	ldhl	sp,	#27
	ld	a, (hl)
	sub	a, #0x06
	jr	Z, 00130$
	ld	a,c
	cp	a,#0x07
	jr	Z, 00130$
	cp	a,#0x09
	jr	Z, 00130$
	cp	a,#0x05
	jr	Z, 00130$
	sub	a, #0x06
	jr	NZ, 00131$
00130$:
;src/player.c:75: p->dead = 1;
	ldhl	sp,	#8
	ld	a, (hl+)
	ld	h, (hl)
	ld	l, a
;src/player.c:76: return 1;
	ld	a,#0x01
	ld	(hl),a
	jp	00258$
00131$:
;src/player.c:81: int16_t effective_vel = p->gravity_flipped ? -p->vel_y : p->vel_y;
	ldhl	sp,#12
	ld	a, (hl+)
	ld	e, a
	ld	d, (hl)
	ld	a, (de)
	ldhl	sp,	#27
	ld	(hl), a
;src/player.c:42: if (p->vel_y > SHIP_MAX_VEL) p->vel_y = SHIP_MAX_VEL;
	ldhl	sp,#10
	ld	a, (hl+)
	ld	e, a
	ld	d, (hl)
	ld	a, (de)
	ldhl	sp,	#23
	ld	(hl+), a
	inc	de
	ld	a, (de)
	ld	(hl), a
;src/player.c:81: int16_t effective_vel = p->gravity_flipped ? -p->vel_y : p->vel_y;
	ldhl	sp,	#27
	ld	a, (hl)
	or	a, a
	jr	Z, 00268$
	ld	de, #0x0000
	ldhl	sp,	#23
	ld	a,	(hl+)
	ld	h, (hl)
	ld	l, a
	ld	a, e
	sub	a, l
	ld	e, a
	ld	a, d
	sbc	a, h
	ldhl	sp,	#26
	ld	(hl-), a
	ld	(hl), e
	jr	00269$
00268$:
	ldhl	sp,	#23
	ld	a, (hl+)
	inc	hl
	ld	(hl-), a
	ld	a, (hl+)
	inc	hl
	ld	(hl), a
00269$:
	ldhl	sp,	#25
	ld	a, (hl+)
	ld	c, a
;src/player.c:82: int8_t pixels = (int8_t)(effective_vel >> 4);
	ld	a, (hl-)
	ld	b, a
	sra	b
	rr	c
	sra	b
	rr	c
	sra	b
	rr	c
	sra	b
	rr	c
;src/player.c:83: if (p->gravity_flipped) pixels = -pixels;
	ld	a, c
	ld	(hl+), a
	inc	hl
	ld	a, (hl)
	or	a, a
	jr	Z, 00140$
	dec	hl
	dec	hl
	xor	a, a
	sub	a, (hl)
	ld	(hl), a
00140$:
;src/player.c:84: int16_t ny = p->world_y + pixels;
	ldhl	sp,#17
	ld	a, (hl+)
	ld	e, a
	ld	d, (hl)
	ld	a, (de)
	ld	c, a
	inc	de
	ld	a, (de)
	ld	b, a
	ldhl	sp,	#25
	ld	a, (hl)
	ld	e, a
	rlca
	sbc	a, a
	ld	d, a
	ld	a, c
	add	a, e
	ld	c, a
	ld	a, b
	adc	a, d
	ldhl	sp,	#2
	ld	(hl), c
	inc	hl
	ld	(hl), a
;src/player.c:85: p->on_ground = 0;
	ldhl	sp,	#14
	ld	a, (hl+)
	ld	h, (hl)
	ld	l, a
	ld	(hl), #0x00
;src/player.c:88: int16_t check_y_foot = (p->gravity_flipped) ? ny : ny + PLAYER_SIZE;
	ldhl	sp,#12
	ld	a, (hl+)
	ld	e, a
	ld	d, (hl)
	ld	a, (de)
	ldhl	sp,	#22
	ld	(hl), a
	ldhl	sp,	#2
	ld	a, (hl+)
	inc	hl
	ld	(hl-), a
	ld	a, (hl+)
	inc	hl
	ld	(hl-), a
	ld	a, (hl+)
	ld	e, a
	ld	d, (hl)
	ld	hl, #0x000f
	add	hl, de
	push	hl
	ld	a, l
	ldhl	sp,	#28
	ld	(hl), a
	pop	hl
	ld	a, h
	ldhl	sp,	#27
	ld	(hl), a
	ldhl	sp,	#22
	ld	a, (hl)
	or	a, a
	jr	Z, 00270$
	ldhl	sp,	#4
	ld	a, (hl)
	ldhl	sp,	#23
	ld	(hl), a
	ldhl	sp,	#5
	ld	a, (hl)
	ldhl	sp,	#24
	ld	(hl), a
	jr	00271$
00270$:
	ldhl	sp,	#26
	ld	a, (hl)
	ldhl	sp,	#23
	ld	(hl), a
	ldhl	sp,	#27
	ld	a, (hl)
	ldhl	sp,	#24
	ld	(hl), a
00271$:
;src/player.c:89: int16_t check_y_head = (p->gravity_flipped) ? ny + PLAYER_SIZE : ny;
	ldhl	sp,	#22
	ld	a, (hl)
	or	a, a
	jr	Z, 00272$
	ldhl	sp,	#26
	ld	a, (hl)
	ldhl	sp,	#21
	ld	(hl), a
	ldhl	sp,	#27
	ld	a, (hl)
	ldhl	sp,	#22
	ld	(hl), a
	jr	00273$
00272$:
	ldhl	sp,	#2
	ld	a, (hl)
	ldhl	sp,	#21
	ld	(hl), a
	ldhl	sp,	#3
	ld	a, (hl)
	ldhl	sp,	#22
	ld	(hl), a
00273$:
	ldhl	sp,	#21
	ld	a, (hl)
	ldhl	sp,	#6
	ld	(hl), a
	ldhl	sp,	#22
	ld	a, (hl)
	ldhl	sp,	#7
	ld	(hl), a
;src/player.c:92: uint8_t cl = col_at(p->world_x + 2, check_y_foot, map, map_w, map_h, map_bank);
	ldhl	sp,#28
	ld	a, (hl+)
	ld	e, a
	ld	d, (hl)
	ld	a, (de)
	ld	c, a
	inc	de
	ld	a, (de)
	ld	e, c
	ld	d, a
	inc	de
	inc	de
	ldhl	sp,	#45
	ld	a, (hl-)
	dec	hl
	push	af
	inc	sp
	ld	a, (hl+)
	ld	c, a
	ld	b, (hl)
	push	bc
	ldhl	sp,	#44
	ld	a, (hl+)
	ld	c, a
	ld	b, (hl)
	push	bc
	ldhl	sp,	#44
	ld	a, (hl+)
	ld	c, a
	ld	b, (hl)
	push	bc
	ldhl	sp,	#30
	ld	a, (hl+)
	ld	c, a
	ld	b, (hl)
	call	_col_at
	ldhl	sp,	#20
	ld	(hl), a
;src/player.c:93: uint8_t cr = col_at(p->world_x + PLAYER_SIZE - 2, check_y_foot, map, map_w, map_h, map_bank);
	ldhl	sp,#28
	ld	a, (hl+)
	ld	e, a
	ld	d, (hl)
	ld	a, (de)
	ld	c, a
	inc	de
	ld	a, (de)
	ld	b, a
	ld	hl, #0x000d
	add	hl, bc
	ld	e, l
	ld	d, h
	ldhl	sp,	#45
	ld	a, (hl-)
	dec	hl
	push	af
	inc	sp
	ld	a, (hl+)
	ld	c, a
	ld	b, (hl)
	push	bc
	ldhl	sp,	#44
	ld	a, (hl+)
	ld	c, a
	ld	b, (hl)
	push	bc
	ldhl	sp,	#44
	ld	a, (hl+)
	ld	c, a
	ld	b, (hl)
	push	bc
	ldhl	sp,	#30
	ld	a, (hl+)
	ld	c, a
	ld	b, (hl)
	call	_col_at
	ldhl	sp,	#21
	ld	(hl), a
;src/player.c:95: uint8_t falling = (p->gravity_flipped) ? (pixels <= 0) : (pixels >= 0);
	ldhl	sp,#12
	ld	a, (hl+)
	ld	e, a
	ld	d, (hl)
	ld	a, (de)
	ldhl	sp,	#22
	ld	(hl), a
	or	a, a
	jr	Z, 00274$
	ldhl	sp,	#25
	ld	e, (hl)
	xor	a, a
	ld	d, a
	sub	a, (hl)
	bit	7, e
	jr	Z, 01202$
	bit	7, d
	jr	NZ, 01203$
	cp	a, a
	jr	01203$
01202$:
	bit	7, d
	jr	Z, 01203$
	scf
01203$:
	ld	a, #0x00
	rla
	xor	a, #0x01
	ldhl	sp,	#23
	ld	(hl), a
	jr	00275$
00274$:
	ldhl	sp,	#25
	ld	a, (hl-)
	dec	hl
	rlca
	and	a, #0x01
	xor	a, #0x01
	ld	(hl), a
00275$:
;src/player.c:99: p->world_y = ((ny >> 4) + 1) << 4;
	ldhl	sp,#2
	ld	a, (hl+)
	ld	c, a
	ld	b, (hl)
	sra	b
	rr	c
	sra	b
	rr	c
	sra	b
	rr	c
	sra	b
	rr	c
	ld	l, c
	ld	h, b
	inc	hl
;src/player.c:101: p->world_y = ((ny + PLAYER_SIZE) & ~15) - PLAYER_SIZE - 1;
	push	hl
	ldhl	sp,	#28
	ld	a, (hl)
	pop	hl
	and	a, #0xf0
	push	hl
	ldhl	sp,	#29
	ld	b, (hl)
	pop	hl
;src/player.c:99: p->world_y = ((ny >> 4) + 1) << 4;
	add	hl, hl
	add	hl, hl
	add	hl, hl
	add	hl, hl
	ld	e, l
	ld	d, h
;src/player.c:101: p->world_y = ((ny + PLAYER_SIZE) & ~15) - PLAYER_SIZE - 1;
	add	a, #0xf0
	ld	c, a
	ld	a, b
	adc	a, #0xff
;src/player.c:99: p->world_y = ((ny >> 4) + 1) << 4;
	ldhl	sp,	#24
	ld	(hl), e
	inc	hl
	ld	(hl), d
;src/player.c:101: p->world_y = ((ny + PLAYER_SIZE) & ~15) - PLAYER_SIZE - 1;
	inc	hl
	ld	(hl), c
	inc	hl
	ld	(hl), a
;src/player.c:97: if (falling && (IS_SOLID(cl) || IS_SOLID(cr))) {
	ldhl	sp,	#23
	ld	a, (hl)
	or	a, a
	jr	Z, 00177$
	ldhl	sp,	#20
	ld	a, (hl)
	sub	a, #0x07
	jr	Z, 00176$
	ldhl	sp,	#20
	ld	a, (hl)
	sub	a, #0x09
	jr	Z, 00176$
	ldhl	sp,	#20
	ld	a, (hl)
	sub	a, #0x05
	jr	Z, 00176$
	ldhl	sp,	#20
	ld	a, (hl)
	sub	a, #0x06
	jr	Z, 00176$
	ldhl	sp,	#21
	ld	a, (hl)
	sub	a, #0x07
	jr	Z, 00176$
	ldhl	sp,	#21
	ld	a, (hl)
	sub	a, #0x09
	jr	Z, 00176$
	ldhl	sp,	#21
	ld	a, (hl)
	sub	a, #0x05
	jr	Z, 00176$
	ldhl	sp,	#21
	ld	a, (hl)
	sub	a, #0x06
	jr	NZ, 00177$
00176$:
;src/player.c:98: if (p->gravity_flipped) {
	ldhl	sp,	#22
	ld	a, (hl)
	or	a, a
	jr	Z, 00142$
;src/player.c:99: p->world_y = ((ny >> 4) + 1) << 4;
	ldhl	sp,	#17
	ld	a, (hl+)
	ld	e, a
	ld	d, (hl)
	ldhl	sp,	#24
	ld	a, (hl+)
	ld	(de), a
	inc	de
	ld	a, (hl)
	ld	(de), a
	jr	00143$
00142$:
;src/player.c:101: p->world_y = ((ny + PLAYER_SIZE) & ~15) - PLAYER_SIZE - 1;
	ldhl	sp,	#17
	ld	a, (hl+)
	ld	e, a
	ld	d, (hl)
	ldhl	sp,	#26
	ld	a, (hl+)
	ld	(de), a
	inc	de
	ld	a, (hl)
	ld	(de), a
00143$:
;src/player.c:103: p->vel_y = 0;
	ldhl	sp,	#10
	ld	a, (hl+)
	ld	h, (hl)
	ld	l, a
	xor	a, a
	ld	(hl+), a
	ld	(hl), a
;src/player.c:104: p->on_ground = 1;
	ldhl	sp,	#14
	ld	a, (hl+)
	ld	h, (hl)
	ld	l, a
	ld	(hl), #0x01
	jp	00178$
00177$:
;src/player.c:107: uint8_t hl = col_at(p->world_x + 2, check_y_head, map, map_w, map_h, map_bank);
	ldhl	sp,#28
	ld	a, (hl+)
	ld	e, a
	ld	d, (hl)
	ld	a, (de)
	ld	c, a
	inc	de
	ld	a, (de)
	ld	e, c
	ld	d, a
	inc	de
	inc	de
	ldhl	sp,	#45
	ld	a, (hl-)
	dec	hl
	push	af
	inc	sp
	ld	a, (hl+)
	ld	c, a
	ld	b, (hl)
	push	bc
	ldhl	sp,	#44
	ld	a, (hl+)
	ld	c, a
	ld	b, (hl)
	push	bc
	ldhl	sp,	#44
	ld	a, (hl+)
	ld	c, a
	ld	b, (hl)
	push	bc
	ldhl	sp,	#13
	ld	a, (hl+)
	ld	c, a
	ld	b, (hl)
	call	_col_at
	ldhl	sp,	#23
	ld	(hl), a
;src/player.c:108: uint8_t hr = col_at(p->world_x + PLAYER_SIZE - 2, check_y_head, map, map_w, map_h, map_bank);
	ldhl	sp,#28
	ld	a, (hl+)
	ld	e, a
	ld	d, (hl)
	ld	a, (de)
	ld	c, a
	inc	de
	ld	a, (de)
	ld	b, a
	ld	hl, #0x000d
	add	hl, bc
	ld	e, l
	ld	d, h
	ldhl	sp,	#45
	ld	a, (hl-)
	dec	hl
	push	af
	inc	sp
	ld	a, (hl+)
	ld	c, a
	ld	b, (hl)
	push	bc
	ldhl	sp,	#44
	ld	a, (hl+)
	ld	c, a
	ld	b, (hl)
	push	bc
	ldhl	sp,	#44
	ld	a, (hl+)
	ld	c, a
	ld	b, (hl)
	push	bc
	ldhl	sp,	#13
	ld	a, (hl+)
	ld	c, a
	ld	b, (hl)
	call	_col_at
	ld	c, a
;src/player.c:109: if (IS_SOLID(hl) || IS_SOLID(hr)) {
	ldhl	sp,	#23
	ld	a, (hl)
	sub	a, #0x07
	jr	Z, 00166$
	ldhl	sp,	#23
	ld	a, (hl)
	sub	a, #0x09
	jr	Z, 00166$
	ldhl	sp,	#23
	ld	a, (hl)
	sub	a, #0x05
	jr	Z, 00166$
	ldhl	sp,	#23
	ld	a, (hl)
	sub	a, #0x06
	jr	Z, 00166$
	ld	a,c
	cp	a,#0x07
	jr	Z, 00166$
	cp	a,#0x09
	jr	Z, 00166$
	cp	a,#0x05
	jr	Z, 00166$
	sub	a, #0x06
	jr	NZ, 00167$
00166$:
;src/player.c:110: if (p->gravity_flipped) {
	ldhl	sp,#12
	ld	a, (hl+)
	ld	e, a
	ld	d, (hl)
	ld	a, (de)
	or	a, a
	jr	Z, 00145$
;src/player.c:111: p->world_y = ((ny + PLAYER_SIZE) & ~15) - PLAYER_SIZE - 1;
	ldhl	sp,	#17
	ld	a, (hl+)
	ld	e, a
	ld	d, (hl)
	ldhl	sp,	#26
	ld	a, (hl+)
	ld	(de), a
	inc	de
	ld	a, (hl)
	ld	(de), a
	jr	00146$
00145$:
;src/player.c:113: p->world_y = ((ny >> 4) + 1) << 4;
	ldhl	sp,	#17
	ld	a, (hl+)
	ld	e, a
	ld	d, (hl)
	ldhl	sp,	#24
	ld	a, (hl+)
	ld	(de), a
	inc	de
	ld	a, (hl)
	ld	(de), a
00146$:
;src/player.c:115: p->vel_y = 0;
	ldhl	sp,	#10
	ld	a, (hl+)
	ld	h, (hl)
	ld	l, a
	xor	a, a
	ld	(hl+), a
	ld	(hl), a
	jp	00178$
00167$:
;src/player.c:117: p->world_y = ny;
	ldhl	sp,	#17
	ld	a, (hl+)
	ld	e, a
	ld	d, (hl)
	ldhl	sp,	#2
	ld	a, (hl+)
	ld	(de), a
	inc	de
	ld	a, (hl)
	ld	(de), a
;src/player.c:120: int16_t sticky_y = (p->gravity_flipped) ? ny - 1 : ny + PLAYER_SIZE + 1;
	ldhl	sp,#12
	ld	a, (hl+)
	ld	e, a
	ld	d, (hl)
	ld	a, (de)
	or	a, a
	jr	Z, 00276$
	ldhl	sp,#4
	ld	a, (hl+)
	ld	c, a
	ld	b, (hl)
	dec	bc
	jr	00277$
00276$:
	ldhl	sp,#4
	ld	a, (hl+)
	ld	e, a
	ld	d, (hl)
	ld	hl, #0x0010
	add	hl, de
	ld	c, l
	ld	b, h
00277$:
;src/player.c:121: uint8_t gl = col_at(p->world_x + 2, sticky_y, map, map_w, map_h, map_bank);
	ldhl	sp,#28
	ld	a, (hl+)
	ld	e, a
	ld	d, (hl)
	ld	a, (de)
	ld	l, a
	inc	de
	ld	a, (de)
	ld	e, l
	ld	d, a
	inc	de
	inc	de
	push	bc
	ldhl	sp,	#47
	ld	a, (hl-)
	push	af
	inc	sp
	ld	a, (hl-)
	ld	l, (hl)
	ld	h, a
	push	hl
	ldhl	sp,	#46
	ld	a, (hl+)
	ld	h, (hl)
	ld	l, a
	push	hl
	ldhl	sp,	#46
	ld	a, (hl+)
	ld	h, (hl)
	ld	l, a
	push	hl
	call	_col_at
	ldhl	sp,	#29
	ld	(hl), a
	pop	bc
;src/player.c:122: uint8_t gr = col_at(p->world_x + PLAYER_SIZE - 2, sticky_y, map, map_w, map_h, map_bank);
	ldhl	sp,#28
	ld	a, (hl+)
	ld	e, a
	ld	d, (hl)
	ld	a, (de)
	ld	l, a
	inc	de
	ld	a, (de)
	ld	h, a
	ld	de, #0x000d
	add	hl, de
	ld	e, l
	ld	d, h
	ldhl	sp,	#45
	ld	a, (hl-)
	push	af
	inc	sp
	ld	a, (hl-)
	ld	l, (hl)
	ld	h, a
	push	hl
	ldhl	sp,	#44
	ld	a, (hl+)
	ld	h, (hl)
	ld	l, a
	push	hl
	ldhl	sp,	#44
	ld	a, (hl+)
	ld	h, (hl)
	ld	l, a
	push	hl
	call	_col_at
	ld	c, a
;src/player.c:123: if (IS_SOLID(gl) || IS_SOLID(gr)) {
	ldhl	sp,	#27
	ld	a, (hl)
	sub	a, #0x07
	jr	Z, 00157$
	ldhl	sp,	#27
	ld	a, (hl)
	sub	a, #0x09
	jr	Z, 00157$
	ldhl	sp,	#27
	ld	a, (hl)
	sub	a, #0x05
	jr	Z, 00157$
	ldhl	sp,	#27
	ld	a, (hl)
	sub	a, #0x06
	jr	Z, 00157$
	ld	a,c
	cp	a,#0x07
	jr	Z, 00157$
	cp	a,#0x09
	jr	Z, 00157$
	cp	a,#0x05
	jr	Z, 00157$
	sub	a, #0x06
	jr	NZ, 00178$
00157$:
;src/player.c:124: p->on_ground = 1;
	ldhl	sp,	#14
	ld	a, (hl+)
	ld	h, (hl)
	ld	l, a
	ld	(hl), #0x01
;src/player.c:126: if (p->mode == MODE_CUBE) p->vel_y = 0;
	pop	de
	push	de
	ld	a, (de)
	or	a, a
	jr	NZ, 00155$
	ldhl	sp,	#10
	ld	a, (hl+)
	ld	h, (hl)
	ld	l, a
	xor	a, a
	ld	(hl+), a
	ld	(hl), a
	jr	00178$
00155$:
;src/player.c:127: else if (p->gravity_flipped) { if (p->vel_y < 0) p->vel_y = 0; }
	ldhl	sp,#12
	ld	a, (hl+)
	ld	e, a
;src/player.c:42: if (p->vel_y > SHIP_MAX_VEL) p->vel_y = SHIP_MAX_VEL;
	ld	a, (hl-)
	dec	hl
	dec	hl
	ld	d, a
	ld	a, (de)
	ld	c, a
	ld	a, (hl+)
	ld	e, a
	ld	d, (hl)
	ld	a, (de)
	ld	b, a
	inc	de
	ld	a, (de)
;src/player.c:38: p->vel_y += (p->gravity_flipped) ? -SHIP_THRUST : SHIP_THRUST;
	ld	l, a
;src/player.c:127: else if (p->gravity_flipped) { if (p->vel_y < 0) p->vel_y = 0; }
	ld	a, c
	or	a, a
	jr	Z, 00152$
	bit	7, l
	jr	Z, 00178$
	ldhl	sp,	#10
	ld	a, (hl+)
	ld	h, (hl)
	ld	l, a
	xor	a, a
	ld	(hl+), a
	ld	(hl), a
	jr	00178$
00152$:
;src/player.c:128: else { if (p->vel_y > 0) p->vel_y = 0; }
	ld	e, l
	xor	a, a
	ld	d, a
	cp	a, b
	sbc	a, l
	bit	7, e
	jr	Z, 01231$
	bit	7, d
	jr	NZ, 01232$
	cp	a, a
	jr	01232$
01231$:
	bit	7, d
	jr	Z, 01232$
	scf
01232$:
	jr	NC, 00178$
	ldhl	sp,	#10
	ld	a, (hl+)
	ld	h, (hl)
	ld	l, a
	xor	a, a
	ld	(hl+), a
	ld	(hl), a
00178$:
;src/player.c:134: uint8_t front_head = col_at(p->world_x + PLAYER_SIZE, p->world_y + PLAYER_HBOX, map, map_w, map_h, map_bank);
	ldhl	sp,#17
	ld	a, (hl+)
	ld	e, a
	ld	d, (hl)
	ld	a, (de)
	ld	c, a
	inc	de
	ld	a, (de)
	ld	b, a
	ld	hl, #0x0006
	add	hl, bc
	ld	c, l
	ld	b, h
	ldhl	sp,#28
	ld	a, (hl+)
	ld	e, a
	ld	d, (hl)
	ld	a, (de)
	ld	l, a
	inc	de
	ld	a, (de)
	ld	h, a
	ld	de, #0x000f
	add	hl, de
	ld	e, l
	ld	d, h
	ldhl	sp,	#45
	ld	a, (hl-)
	push	af
	inc	sp
	ld	a, (hl-)
	ld	l, (hl)
	ld	h, a
	push	hl
	ldhl	sp,	#44
	ld	a, (hl+)
	ld	h, (hl)
	ld	l, a
	push	hl
	ldhl	sp,	#44
	ld	a, (hl+)
	ld	h, (hl)
	ld	l, a
	push	hl
	call	_col_at
	ldhl	sp,	#19
	ld	(hl), a
;src/player.c:135: uint8_t front_foot = col_at(p->world_x + PLAYER_SIZE, p->world_y + PLAYER_SIZE - PLAYER_HBOX, map, map_w, map_h, map_bank);
	ldhl	sp,#17
	ld	a, (hl+)
	ld	e, a
	ld	d, (hl)
	ld	a, (de)
	ld	c, a
	inc	de
	ld	a, (de)
	ld	b, a
	ld	hl, #0x0009
	add	hl, bc
	ld	c, l
	ld	b, h
	ldhl	sp,#28
	ld	a, (hl+)
	ld	e, a
	ld	d, (hl)
	ld	a, (de)
	ld	l, a
	inc	de
	ld	a, (de)
	ld	h, a
	ld	de, #0x000f
	add	hl, de
	ld	e, l
	ld	d, h
	ldhl	sp,	#45
	ld	a, (hl-)
	push	af
	inc	sp
	ld	a, (hl-)
	ld	l, (hl)
	ld	h, a
	push	hl
	ldhl	sp,	#44
	ld	a, (hl+)
	ld	h, (hl)
	ld	l, a
	push	hl
	ldhl	sp,	#44
	ld	a, (hl+)
	ld	h, (hl)
	ld	l, a
	push	hl
	call	_col_at
	ldhl	sp,	#20
	ld	(hl), a
;src/player.c:138: uint8_t hz_tl = col_at(p->world_x + PLAYER_HBOX, p->world_y + PLAYER_HBOX, map, map_w, map_h, map_bank);
	ldhl	sp,#17
	ld	a, (hl+)
	ld	e, a
	ld	d, (hl)
	ld	a, (de)
	ld	c, a
	inc	de
	ld	a, (de)
	ld	b, a
	ld	hl, #0x0006
	add	hl, bc
	ld	c, l
	ld	b, h
	ldhl	sp,#28
	ld	a, (hl+)
	ld	e, a
	ld	d, (hl)
	ld	a, (de)
	ld	l, a
	inc	de
	ld	a, (de)
	ld	h, a
	ld	de, #0x0006
	add	hl, de
	ld	e, l
	ld	d, h
	ldhl	sp,	#45
	ld	a, (hl-)
	push	af
	inc	sp
	ld	a, (hl-)
	ld	l, (hl)
	ld	h, a
	push	hl
	ldhl	sp,	#44
	ld	a, (hl+)
	ld	h, (hl)
	ld	l, a
	push	hl
	ldhl	sp,	#44
	ld	a, (hl+)
	ld	h, (hl)
	ld	l, a
	push	hl
	call	_col_at
	ldhl	sp,	#21
	ld	(hl), a
;src/player.c:139: uint8_t hz_tr = col_at(p->world_x + PLAYER_SIZE - PLAYER_HBOX, p->world_y + PLAYER_HBOX, map, map_w, map_h, map_bank);
	ldhl	sp,#17
	ld	a, (hl+)
	ld	e, a
	ld	d, (hl)
	ld	a, (de)
	ld	c, a
	inc	de
	ld	a, (de)
	ld	b, a
	ld	hl, #0x0006
	add	hl, bc
	ld	c, l
	ld	b, h
	ldhl	sp,#28
	ld	a, (hl+)
	ld	e, a
	ld	d, (hl)
	ld	a, (de)
	ld	l, a
	inc	de
	ld	a, (de)
	ld	h, a
	ld	de, #0x0009
	add	hl, de
	ld	e, l
	ld	d, h
	ldhl	sp,	#45
	ld	a, (hl-)
	push	af
	inc	sp
	ld	a, (hl-)
	ld	l, (hl)
	ld	h, a
	push	hl
	ldhl	sp,	#44
	ld	a, (hl+)
	ld	h, (hl)
	ld	l, a
	push	hl
	ldhl	sp,	#44
	ld	a, (hl+)
	ld	h, (hl)
	ld	l, a
	push	hl
	call	_col_at
	ldhl	sp,	#22
	ld	(hl), a
;src/player.c:140: uint8_t hz_bl = col_at(p->world_x + PLAYER_HBOX, p->world_y + PLAYER_SIZE - PLAYER_HBOX, map, map_w, map_h, map_bank);
	ldhl	sp,#17
	ld	a, (hl+)
	ld	e, a
	ld	d, (hl)
	ld	a, (de)
	ld	c, a
	inc	de
	ld	a, (de)
	ld	b, a
	ld	hl, #0x0009
	add	hl, bc
	ld	c, l
	ld	b, h
	ldhl	sp,#28
	ld	a, (hl+)
	ld	e, a
	ld	d, (hl)
	ld	a, (de)
	ld	l, a
	inc	de
	ld	a, (de)
	ld	h, a
	ld	de, #0x0006
	add	hl, de
	ld	e, l
	ld	d, h
	ldhl	sp,	#45
	ld	a, (hl-)
	push	af
	inc	sp
	ld	a, (hl-)
	ld	l, (hl)
	ld	h, a
	push	hl
	ldhl	sp,	#44
	ld	a, (hl+)
	ld	h, (hl)
	ld	l, a
	push	hl
	ldhl	sp,	#44
	ld	a, (hl+)
	ld	h, (hl)
	ld	l, a
	push	hl
	call	_col_at
	ldhl	sp,	#23
	ld	(hl), a
;src/player.c:141: uint8_t hz_br = col_at(p->world_x + PLAYER_SIZE - PLAYER_HBOX, p->world_y + PLAYER_SIZE - PLAYER_HBOX, map, map_w, map_h, map_bank);
	ldhl	sp,#17
	ld	a, (hl+)
	ld	e, a
	ld	d, (hl)
	ld	a, (de)
	ld	c, a
	inc	de
	ld	a, (de)
	ld	b, a
	ld	hl, #0x0009
	add	hl, bc
	ld	c, l
	ld	b, h
	ldhl	sp,#28
	ld	a, (hl+)
	ld	e, a
	ld	d, (hl)
	ld	a, (de)
	ld	l, a
	inc	de
	ld	a, (de)
	ld	h, a
	ld	de, #0x0009
	add	hl, de
	ld	e, l
	ld	d, h
	ldhl	sp,	#45
	ld	a, (hl-)
	push	af
	inc	sp
	ld	a, (hl-)
	ld	l, (hl)
	ld	h, a
	push	hl
	ldhl	sp,	#44
	ld	a, (hl+)
	ld	h, (hl)
	ld	l, a
	push	hl
	ldhl	sp,	#44
	ld	a, (hl+)
	ld	h, (hl)
	ld	l, a
	push	hl
	call	_col_at
	ldhl	sp,	#24
	ld	(hl), a
;src/player.c:144: uint8_t mid = col_at(p->world_x + 8, p->world_y + 8, map, map_w, map_h, map_bank);
	ldhl	sp,#17
	ld	a, (hl+)
	ld	e, a
	ld	d, (hl)
	ld	a, (de)
	ld	c, a
	inc	de
	ld	a, (de)
	ld	b, a
	ld	hl, #0x0008
	add	hl, bc
	ld	c, l
	ld	b, h
	ldhl	sp,#28
	ld	a, (hl+)
	ld	e, a
	ld	d, (hl)
	ld	a, (de)
	ld	l, a
	inc	de
	ld	a, (de)
	ld	h, a
	ld	de, #0x0008
	add	hl, de
	ld	e, l
	ld	d, h
	ldhl	sp,	#45
	ld	a, (hl-)
	push	af
	inc	sp
	ld	a, (hl-)
	ld	l, (hl)
	ld	h, a
	push	hl
	ldhl	sp,	#44
	ld	a, (hl+)
	ld	h, (hl)
	ld	l, a
	push	hl
	ldhl	sp,	#44
	ld	a, (hl+)
	ld	h, (hl)
	ld	l, a
	push	hl
	call	_col_at
;src/player.c:145: if (IS_PAD(mid) || IS_PAD(front_head) || IS_PAD(front_foot)) {
	ldhl	sp,#25
	ld	(hl), a
	sub	a, #0x0b
	ld	a, #0x01
	jr	Z, 01234$
	xor	a, a
01234$:
	ldhl	sp,	#26
	ld	(hl-), a
	ld	a, (hl)
	sub	a, #0x0e
	ld	a, #0x01
	jr	Z, 01236$
	xor	a, a
01236$:
	ldhl	sp,	#27
	ld	(hl), a
	ldhl	sp,	#19
	ld	a, (hl)
	sub	a, #0x0b
	ld	a, #0x01
	jr	Z, 01238$
	xor	a, a
01238$:
	ldhl	sp,	#28
	ld	(hl), a
	ldhl	sp,	#19
	ld	a, (hl)
	sub	a, #0x0e
	ld	a, #0x01
	jr	Z, 01240$
	xor	a, a
01240$:
	ldhl	sp,	#29
	ld	(hl), a
	ldhl	sp,	#26
	ld	a, (hl)
	or	a, a
	jr	NZ, 00207$
	inc	hl
	ld	a, (hl)
	or	a, a
	jr	NZ, 00207$
	inc	hl
	ld	a, (hl)
	or	a, a
	jr	NZ, 00207$
	inc	hl
	ld	a, (hl)
	or	a, a
	jr	NZ, 00207$
	ldhl	sp,	#20
	ld	a, (hl)
	sub	a, #0x0b
	jr	Z, 00207$
	ldhl	sp,	#20
	ld	a, (hl)
	sub	a, #0x0e
	jr	NZ, 00208$
00207$:
;src/player.c:146: uint8_t hit = (IS_PAD(mid)) ? mid : (IS_PAD(front_head) ? front_head : front_foot);
	ldhl	sp,	#26
	bit	0, (hl)
	jr	NZ, 00281$
	inc	hl
	bit	0, (hl)
	jr	Z, 00278$
00281$:
	ldhl	sp,	#25
	ld	a, (hl)
	jr	00279$
00278$:
	ldhl	sp,	#28
	bit	0, (hl)
	jr	NZ, 00286$
	inc	hl
	bit	0, (hl)
	jr	Z, 00283$
00286$:
	ldhl	sp,	#19
	ld	a, (hl)
	jr	00284$
00283$:
	ldhl	sp,	#20
	ld	a, (hl)
00284$:
00279$:
	ld	b, a
;src/player.c:81: int16_t effective_vel = p->gravity_flipped ? -p->vel_y : p->vel_y;
	ldhl	sp,#12
	ld	a, (hl+)
	ld	e, a
	ld	d, (hl)
	ld	a, (de)
	ld	c, a
;src/player.c:147: if (hit == COL_PAD_BLUE) {
	ld	a, b
	sub	a, #0x0e
	jr	NZ, 00188$
;src/player.c:148: p->gravity_flipped = !p->gravity_flipped;
	dec	hl
	ld	a, c
	sub	a, #0x01
	ld	a, #0x00
	rla
	ld	e, (hl)
	inc	hl
	ld	h, (hl)
	ld	l, e
	ld	(hl), a
;src/player.c:150: p->vel_y = (p->gravity_flipped) ? -20 : 20;
	or	a, a
	ld	a, #0xec
	jr	NZ, 00289$
	ld	a, #0x14
00289$:
	ld	c, a
	rlca
	sbc	a, a
	ld	b, a
	ldhl	sp,	#10
	ld	a, (hl+)
	ld	h, (hl)
	ld	l, a
	ld	a, c
	ld	(hl+), a
	ld	(hl), b
	jr	00189$
00188$:
;src/player.c:152: p->vel_y = (p->gravity_flipped) ? -PAD_JUMP_FORCE : PAD_JUMP_FORCE;
	ld	a, c
	or	a, a
	jr	Z, 00290$
	ld	bc, #0x008c
	jr	00291$
00290$:
	ld	bc, #0xff74
00291$:
	ldhl	sp,	#10
	ld	a, (hl+)
	ld	h, (hl)
	ld	l, a
	ld	a, c
	ld	(hl+), a
	ld	(hl), b
00189$:
;src/player.c:154: p->on_ground = 0;
	ldhl	sp,	#14
	ld	a, (hl+)
	ld	h, (hl)
	ld	l, a
	ld	(hl), #0x00
	jp	00209$
00208$:
;src/player.c:155: } else if ((joy & J_A) && (IS_ORB(mid) || IS_ORB(front_head) || IS_ORB(front_foot))) {
	ldhl	sp,	#16
	ld	a, (hl)
	or	a, a
	jp	Z, 00209$
	ldhl	sp,	#25
	ld	a, (hl)
	sub	a, #0x0a
	ld	a, #0x01
	jr	Z, 01247$
	xor	a, a
01247$:
	ld	b, a
	ldhl	sp,	#25
	ld	a, (hl)
	sub	a, #0x0c
	ld	a, #0x01
	jr	Z, 01249$
	xor	a, a
01249$:
	ldhl	sp,	#28
	ld	(hl), a
	ldhl	sp,	#25
	ld	a, (hl)
	sub	a, #0x0d
	ld	a, #0x01
	jr	Z, 01251$
	xor	a, a
01251$:
	ld	c, a
	ldhl	sp,	#19
	ld	a, (hl)
	sub	a, #0x0a
	ld	a, #0x01
	jr	Z, 01253$
	xor	a, a
01253$:
	ld	e, a
	ldhl	sp,	#19
	ld	a, (hl)
	sub	a, #0x0c
	ld	a, #0x01
	jr	Z, 01255$
	xor	a, a
01255$:
	ldhl	sp,	#29
	ld	(hl), a
	ldhl	sp,	#19
	ld	a, (hl)
	sub	a, #0x0d
	ld	a, #0x01
	jr	Z, 01257$
	xor	a, a
01257$:
	ld	d, a
	ld	a, b
	or	a, a
	jr	NZ, 00196$
	ldhl	sp,	#28
	ld	a, (hl)
	or	a, a
	jr	NZ, 00196$
	or	a, c
	jr	NZ, 00196$
	or	a, e
	jr	NZ, 00196$
	inc	hl
	ld	a, (hl)
	or	a, a
	jr	NZ, 00196$
	or	a, d
	jr	NZ, 00196$
	ldhl	sp,	#20
	ld	a, (hl)
	sub	a, #0x0a
	jr	Z, 00196$
	ldhl	sp,	#20
	ld	a, (hl)
	sub	a, #0x0c
	jr	Z, 00196$
	ldhl	sp,	#20
	ld	a, (hl)
	sub	a, #0x0d
	jp	NZ, 00209$
00196$:
;src/player.c:156: uint8_t hit = (IS_ORB(mid)) ? mid : (IS_ORB(front_head) ? front_head : front_foot);
	bit	0, b
	jr	NZ, 00295$
	ldhl	sp,	#28
	ld	b, (hl)
	bit	0, b
	jr	NZ, 00295$
	bit	0, c
	jr	Z, 00292$
00295$:
	ldhl	sp,	#25
	ld	a, (hl)
	ldhl	sp,	#29
	ld	(hl), a
	jr	00293$
00292$:
	bit	0, e
	jr	NZ, 00303$
	ldhl	sp,	#29
	ld	c, (hl)
	bit	0, c
	jr	NZ, 00303$
	bit	0, d
	jr	Z, 00300$
00303$:
	ldhl	sp,	#19
	ld	a, (hl)
	jr	00301$
00300$:
	ldhl	sp,	#20
	ld	a, (hl)
00301$:
	ldhl	sp,	#29
	ld	(hl), a
00293$:
;src/player.c:81: int16_t effective_vel = p->gravity_flipped ? -p->vel_y : p->vel_y;
	ldhl	sp,#12
	ld	a, (hl+)
	ld	e, a
	ld	d, (hl)
	ld	a, (de)
	ldhl	sp,	#28
;src/player.c:157: if (hit == COL_ORB_MAGENTA) {
	ld	(hl+), a
	ld	a, (hl)
	sub	a, #0x0d
	jr	NZ, 00194$
;src/player.c:158: p->vel_y = (p->gravity_flipped) ? -MAGENTA_JUMP_FORCE : MAGENTA_JUMP_FORCE;
	ldhl	sp,	#28
	ld	a, (hl)
	or	a, a
	jr	Z, 00308$
	inc	hl
	ld	(hl), #0x3c
	jr	00309$
00308$:
	ldhl	sp,	#29
	ld	(hl), #0xc4
00309$:
	ldhl	sp,	#29
	ld	a, (hl-)
	ld	(hl+), a
	rlca
	sbc	a, a
	ld	(hl), a
	ldhl	sp,	#10
	ld	a, (hl+)
	ld	e, a
	ld	d, (hl)
	ldhl	sp,	#28
	ld	a, (hl+)
	ld	(de), a
	inc	de
	ld	a, (hl)
	ld	(de), a
	jr	00195$
00194$:
;src/player.c:159: } else if (hit == COL_ORB_BLUE) {
	ldhl	sp,	#29
	ld	a, (hl)
	sub	a, #0x0c
	jr	NZ, 00191$
;src/player.c:160: p->gravity_flipped = !p->gravity_flipped;
	ldhl	sp,	#28
	ld	a, (hl)
	sub	a, #0x01
	ld	a, #0x00
	rla
	ldhl	sp,	#12
	ld	e, (hl)
	inc	hl
	ld	h, (hl)
	ld	l, e
	ld	(hl), a
;src/player.c:161: p->vel_y = (p->gravity_flipped) ? -20 : 20;
	or	a, a
	ld	a, #0xec
	jr	NZ, 00311$
	ld	a, #0x14
00311$:
	ld	c, a
	rlca
	sbc	a, a
	ld	b, a
	ldhl	sp,	#10
	ld	a, (hl+)
	ld	h, (hl)
	ld	l, a
	ld	a, c
	ld	(hl+), a
	ld	(hl), b
	jr	00195$
00191$:
;src/player.c:163: p->vel_y = (p->gravity_flipped) ? -JUMP_FORCE : JUMP_FORCE;
	ldhl	sp,	#28
	ld	a, (hl)
	or	a, a
	ld	a, #0x5d
	jr	NZ, 00313$
	ld	a, #0xa3
00313$:
	ld	c, a
	rlca
	sbc	a, a
	ld	b, a
	ldhl	sp,	#10
	ld	a, (hl+)
	ld	h, (hl)
	ld	l, a
	ld	a, c
	ld	(hl+), a
	ld	(hl), b
00195$:
;src/player.c:165: p->on_ground = 0;
	ldhl	sp,	#14
	ld	a, (hl+)
	ld	h, (hl)
	ld	l, a
	ld	(hl), #0x00
00209$:
;src/player.c:169: if (IS_SOLID(front_head) || IS_SOLID(front_foot) ||
	ldhl	sp,	#19
	ld	a, (hl)
	sub	a, #0x07
	jp	Z, 00215$
	ldhl	sp,	#19
	ld	a, (hl)
	sub	a, #0x09
	jp	Z, 00215$
	ldhl	sp,	#19
	ld	a, (hl)
	sub	a, #0x05
	jp	Z, 00215$
	ldhl	sp,	#19
	ld	a, (hl)
	sub	a, #0x06
	jp	Z, 00215$
	ldhl	sp,	#20
	ld	a, (hl)
	sub	a, #0x07
	jp	Z, 00215$
	ldhl	sp,	#20
	ld	a, (hl)
	sub	a, #0x09
	jp	Z, 00215$
	ldhl	sp,	#20
	ld	a, (hl)
	sub	a, #0x05
	jp	Z, 00215$
	ldhl	sp,	#20
	ld	a, (hl)
	sub	a, #0x06
	jp	Z, 00215$
;src/player.c:170: IS_HAZARD(hz_tl) || IS_HAZARD(hz_tr) || IS_HAZARD(hz_bl) || IS_HAZARD(hz_br)) {
	ldhl	sp,	#21
	ld	a, (hl)
	sub	a, #0x08
	jp	Z, 00215$
	ldhl	sp,	#21
	ld	a, (hl)
	sub	a, #0x03
	jp	Z, 00215$
	ldhl	sp,	#21
	ld	a, (hl)
	sub	a, #0x04
	jp	Z, 00215$
	ldhl	sp,	#21
	ld	a, (hl)
	sub	a, #0x02
	jp	Z, 00215$
	ldhl	sp,	#21
	ld	a, (hl)
	dec	a
	jp	Z, 00215$
	ldhl	sp,	#21
	ld	a, (hl)
	sub	a, #0x10
	jp	Z, 00215$
	ldhl	sp,	#21
	ld	a, (hl)
	sub	a, #0x11
	jp	Z, 00215$
	ldhl	sp,	#22
	ld	a, (hl)
	sub	a, #0x08
	jp	Z, 00215$
	ldhl	sp,	#22
	ld	a, (hl)
	sub	a, #0x03
	jp	Z, 00215$
	ldhl	sp,	#22
	ld	a, (hl)
	sub	a, #0x04
	jr	Z, 00215$
	ldhl	sp,	#22
	ld	a, (hl)
	sub	a, #0x02
	jr	Z, 00215$
	ldhl	sp,	#22
	ld	a, (hl)
	dec	a
	jr	Z, 00215$
	ldhl	sp,	#22
	ld	a, (hl)
	sub	a, #0x10
	jr	Z, 00215$
	ldhl	sp,	#22
	ld	a, (hl)
	sub	a, #0x11
	jr	Z, 00215$
	ldhl	sp,	#23
	ld	a, (hl)
	sub	a, #0x08
	jr	Z, 00215$
	ldhl	sp,	#23
	ld	a, (hl)
	sub	a, #0x03
	jr	Z, 00215$
	ldhl	sp,	#23
	ld	a, (hl)
	sub	a, #0x04
	jr	Z, 00215$
	ldhl	sp,	#23
	ld	a, (hl)
	sub	a, #0x02
	jr	Z, 00215$
	ldhl	sp,	#23
	ld	a, (hl)
	dec	a
	jr	Z, 00215$
	ldhl	sp,	#23
	ld	a, (hl)
	sub	a, #0x10
	jr	Z, 00215$
	ldhl	sp,	#23
	ld	a, (hl)
	sub	a, #0x11
	jr	Z, 00215$
	ldhl	sp,	#24
	ld	a, (hl)
	sub	a, #0x08
	jr	Z, 00215$
	ldhl	sp,	#24
	ld	a, (hl)
	sub	a, #0x03
	jr	Z, 00215$
	ldhl	sp,	#24
	ld	a, (hl)
	sub	a, #0x04
	jr	Z, 00215$
	ldhl	sp,	#24
	ld	a, (hl)
	sub	a, #0x02
	jr	Z, 00215$
	ldhl	sp,	#24
	ld	a, (hl)
	dec	a
	jr	Z, 00215$
	ldhl	sp,	#24
	ld	a, (hl)
	sub	a, #0x10
	jr	Z, 00215$
	ldhl	sp,	#24
	ld	a, (hl)
	sub	a, #0x11
	jr	NZ, 00216$
00215$:
;src/player.c:171: p->dead = 1;
	ldhl	sp,	#8
	ld	a, (hl+)
	ld	h, (hl)
	ld	l, a
;src/player.c:172: return 1;
	ld	a,#0x01
	ld	(hl),a
	jp	00258$
00216$:
;src/player.c:176: if (p->on_ground) {
	ldhl	sp,#14
	ld	a, (hl+)
	ld	e, a
	ld	d, (hl)
	ld	a, (de)
	ldhl	sp,	#29
	ld	(hl), a
;src/player.c:177: p->anim_timer = 0;
	ldhl	sp,#36
	ld	a, (hl+)
	ld	e, a
	ld	d, (hl)
	ld	hl, #0x000b
	add	hl, de
	ld	c, l
	ld	b, h
;src/player.c:178: p->anim_frame = 0;
	ldhl	sp,#36
	ld	a, (hl+)
	ld	e, a
	ld	d, (hl)
	ld	hl, #0x000a
	add	hl, de
	push	hl
	ld	a, l
	ldhl	sp,	#29
	ld	(hl), a
	pop	hl
	ld	a, h
	ldhl	sp,	#28
;src/player.c:176: if (p->on_ground) {
	ld	(hl+), a
	ld	a, (hl)
	or	a, a
	jr	Z, 00253$
;src/player.c:177: p->anim_timer = 0;
;src/player.c:178: p->anim_frame = 0;
	dec	hl
	xor	a, a
	ld	(bc), a
	inc	bc
	ld	(bc), a
	ld	a, (hl-)
	ld	l, (hl)
	ld	h, a
	ld	(hl), #0x00
	jr	00254$
00253$:
;src/player.c:180: p->anim_timer++;
	ld	l, c
	ld	h, b
	ld	a,	(hl+)
	ld	h, (hl)
	ld	l, a
	inc	hl
	ld	a, l
	ld	(bc), a
	inc	bc
	ld	a, h
	ld	(bc), a
;src/player.c:182: p->anim_frame = ((uint32_t)p->anim_timer * 3 / 5) % 24;
	ld	c, l
	ld	b, h
	xor	a, a
	ld	d, a
	ld	e, a
	push	de
	push	bc
	ld	bc, #0x0003
	ld	de, #0x0000
	call	__mullong
	ld	hl, #0x0000
	push	hl
	ld	l, #0x05
	push	hl
	call	__divulong
	ld	e, c
	ld	d, b
	ld	bc, #0x0018
	call	__modsint
	ldhl	sp,	#27
	ld	a, (hl+)
	ld	h, (hl)
	ld	l, a
	ld	(hl), c
00254$:
;src/player.c:72: uint8_t f_h = col_at(p->world_x + PLAYER_SIZE, p->world_y + PLAYER_HBOX, map, map_w, map_h, map_bank);
	ldhl	sp,#17
	ld	a, (hl+)
	ld	e, a
	ld	d, (hl)
	ld	a, (de)
	ld	c, a
	inc	de
	ld	a, (de)
	ld	b, a
;src/player.c:186: if (p->world_y > (int16_t)((uint16_t)map_h << 4) || p->world_y < -32) {
	ldhl	sp,	#43
	ld	a, (hl+)
	ld	e, (hl)
	add	a, a
	rl	e
	add	a, a
	rl	e
	add	a, a
	rl	e
	add	a, a
	rl	e
	ld	l, a
	ld	h, e
	ld	e, b
	ld	d, h
	ld	a, l
	sub	a, c
	ld	a, h
	sbc	a, b
	bit	7, e
	jr	Z, 01304$
	bit	7, d
	jr	NZ, 01305$
	cp	a, a
	jr	01305$
01304$:
	bit	7, d
	jr	Z, 01305$
	scf
01305$:
	jr	C, 00255$
	ld	a, c
	sub	a, #0xe0
	ld	a, b
	rla
	ccf
	rra
	sbc	a, #0x7f
	jr	NC, 00256$
00255$:
;src/player.c:187: p->dead = 1;
	ldhl	sp,	#8
	ld	a, (hl+)
	ld	h, (hl)
	ld	l, a
;src/player.c:188: return 1;
	ld	a,#0x01
	ld	(hl),a
	jr	00258$
00256$:
;src/player.c:191: return 0;
	xor	a, a
00258$:
;src/player.c:192: }
	add	sp, #30
	ret
	.area _CODE_1
	.area _INITIALIZER
__xinit__player_noclip:
	.db #0x00	; 0
	.area _CABS (ABS)
